(lp1
(lp2
I0
aI0
aI7
aI11
aI11
aI6
aI0
aI0
aI0
aI9
aI16
aI12
aI10
aI14
aI0
aI0
aI0
aI5
aI2
aI0
aI4
aI14
aI0
aI0
aI0
aI0
aI1
aI5
aI14
aI6
aI0
aI0
aI0
aI1
aI15
aI16
aI16
aI10
aI0
aI0
aI0
aI0
aI7
aI4
aI4
aI15
aI6
aI0
aI0
aI0
aI5
aI4
aI8
aI13
aI12
aI0
aI0
aI0
aI14
aI16
aI12
aI10
aI1
aI0
aI3
aa(lp3
I0
aI0
aI6
aI12
aI11
aI3
aI0
aI0
aI0
aI0
aI16
aI9
aI16
aI7
aI0
aI0
aI0
aI0
aI0
aI10
aI13
aI0
aI0
aI0
aI0
aI0
aI14
aI16
aI16
aI10
aI1
aI0
aI0
aI0
aI8
aI2
aI3
aI15
aI4
aI0
aI0
aI0
aI1
aI0
aI0
aI12
aI6
aI0
aI0
aI8
aI15
aI6
aI9
aI16
aI3
aI0
aI0
aI0
aI7
aI12
aI13
aI6
aI0
aI0
aI3
aa(lp4
I0
aI0
aI4
aI13
aI16
aI8
aI0
aI0
aI0
aI6
aI16
aI9
aI11
aI12
aI0
aI0
aI0
aI9
aI11
aI4
aI16
aI6
aI0
aI0
aI0
aI0
aI8
aI15
aI16
aI12
aI1
aI0
aI0
aI0
aI2
aI6
aI1
aI13
aI8
aI0
aI0
aI0
aI9
aI1
aI0
aI9
aI8
aI0
aI0
aI0
aI13
aI8
aI9
aI15
aI4
aI0
aI0
aI0
aI6
aI14
aI12
aI5
aI0
aI0
aI3
aa(lp5
I0
aI2
aI11
aI15
aI16
aI8
aI0
aI0
aI0
aI4
aI9
aI1
aI5
aI16
aI4
aI0
aI0
aI0
aI0
aI5
aI13
aI13
aI0
aI0
aI0
aI0
aI4
aI16
aI16
aI5
aI0
aI0
aI0
aI0
aI0
aI2
aI7
aI14
aI2
aI0
aI0
aI0
aI2
aI0
aI0
aI11
aI7
aI0
aI0
aI6
aI10
aI1
aI8
aI14
aI2
aI0
aI0
aI3
aI14
aI15
aI11
aI3
aI0
aI0
aI3
aa(lp6
I0
aI0
aI10
aI13
aI15
aI12
aI5
aI0
aI0
aI0
aI9
aI5
aI5
aI13
aI7
aI0
aI0
aI0
aI0
aI1
aI11
aI13
aI0
aI0
aI0
aI0
aI5
aI16
aI16
aI3
aI0
aI0
aI0
aI0
aI2
aI10
aI12
aI15
aI7
aI0
aI0
aI0
aI0
aI0
aI1
aI16
aI4
aI0
aI0
aI0
aI2
aI8
aI13
aI12
aI1
aI0
aI0
aI0
aI10
aI15
aI7
aI0
aI0
aI0
aI3
aa(lp7
I0
aI0
aI5
aI13
aI14
aI5
aI0
aI0
aI0
aI5
aI16
aI12
aI12
aI16
aI0
aI0
aI0
aI1
aI3
aI0
aI11
aI14
aI0
aI0
aI0
aI0
aI0
aI9
aI16
aI4
aI0
aI0
aI0
aI0
aI2
aI16
aI16
aI9
aI1
aI0
aI0
aI0
aI0
aI3
aI5
aI16
aI7
aI0
aI0
aI0
aI2
aI4
aI9
aI16
aI5
aI0
aI0
aI0
aI5
aI13
aI14
aI6
aI0
aI0
aI3
aa(lp8
I0
aI0
aI6
aI9
aI13
aI11
aI0
aI0
aI0
aI10
aI14
aI8
aI9
aI16
aI4
aI0
aI0
aI0
aI0
aI0
aI1
aI15
aI6
aI0
aI0
aI0
aI0
aI3
aI14
aI14
aI1
aI0
aI0
aI0
aI7
aI16
aI16
aI16
aI4
aI0
aI0
aI0
aI1
aI1
aI0
aI12
aI9
aI0
aI0
aI0
aI1
aI2
aI5
aI14
aI10
aI0
aI0
aI0
aI7
aI16
aI13
aI10
aI1
aI0
aI3
aa(lp9
I0
aI0
aI6
aI13
aI15
aI4
aI0
aI0
aI0
aI5
aI16
aI9
aI8
aI12
aI0
aI0
aI0
aI4
aI4
aI0
aI10
aI10
aI0
aI0
aI0
aI0
aI1
aI10
aI16
aI10
aI1
aI0
aI0
aI0
aI3
aI11
aI8
aI15
aI8
aI0
aI0
aI0
aI0
aI0
aI0
aI11
aI7
aI0
aI0
aI0
aI4
aI4
aI8
aI15
aI1
aI0
aI0
aI0
aI4
aI15
aI15
aI1
aI0
aI0
aI3
aa(lp10
I0
aI0
aI7
aI13
aI16
aI9
aI0
aI0
aI0
aI0
aI11
aI8
aI9
aI16
aI5
aI0
aI0
aI0
aI0
aI0
aI7
aI15
aI0
aI0
aI0
aI0
aI0
aI13
aI16
aI5
aI0
aI0
aI0
aI0
aI0
aI10
aI12
aI16
aI3
aI0
aI0
aI0
aI0
aI0
aI3
aI16
aI2
aI0
aI0
aI0
aI2
aI7
aI14
aI7
aI0
aI0
aI0
aI0
aI10
aI10
aI2
aI0
aI0
aI0
aI3
aa(lp11
I0
aI3
aI9
aI14
aI16
aI13
aI1
aI0
aI0
aI7
aI13
aI9
aI10
aI16
aI4
aI0
aI0
aI0
aI1
aI1
aI12
aI12
aI1
aI0
aI0
aI0
aI0
aI14
aI16
aI4
aI0
aI0
aI0
aI0
aI0
aI8
aI14
aI16
aI2
aI0
aI0
aI0
aI0
aI0
aI3
aI16
aI8
aI0
aI0
aI0
aI3
aI9
aI15
aI12
aI1
aI0
aI0
aI2
aI16
aI13
aI7
aI0
aI0
aI0
aI3
aa(lp12
I0
aI1
aI8
aI13
aI16
aI13
aI0
aI0
aI0
aI5
aI14
aI7
aI8
aI15
aI0
aI0
aI0
aI0
aI0
aI2
aI13
aI8
aI0
aI0
aI0
aI0
aI0
aI13
aI16
aI13
aI1
aI0
aI0
aI0
aI0
aI2
aI5
aI14
aI7
aI0
aI0
aI0
aI0
aI0
aI0
aI13
aI7
aI0
aI0
aI0
aI2
aI6
aI12
aI13
aI1
aI0
aI0
aI0
aI7
aI13
aI7
aI1
aI0
aI0
aI3
aa(lp13
I0
aI0
aI4
aI10
aI16
aI9
aI0
aI0
aI0
aI4
aI15
aI9
aI8
aI12
aI0
aI0
aI0
aI4
aI4
aI0
aI8
aI10
aI0
aI0
aI0
aI0
aI0
aI6
aI16
aI13
aI1
aI0
aI0
aI0
aI0
aI9
aI10
aI12
aI7
aI0
aI0
aI0
aI0
aI0
aI0
aI10
aI7
aI0
aI0
aI0
aI1
aI6
aI10
aI16
aI3
aI0
aI0
aI0
aI4
aI14
aI10
aI2
aI0
aI0
aI3
aa(lp14
I0
aI0
aI6
aI15
aI16
aI11
aI3
aI0
aI0
aI0
aI12
aI8
aI8
aI14
aI9
aI0
aI0
aI0
aI0
aI0
aI3
aI16
aI4
aI0
aI0
aI0
aI0
aI5
aI16
aI13
aI1
aI0
aI0
aI0
aI0
aI8
aI12
aI14
aI7
aI0
aI0
aI0
aI0
aI0
aI3
aI15
aI2
aI0
aI0
aI0
aI2
aI9
aI15
aI8
aI0
aI0
aI0
aI0
aI10
aI9
aI2
aI0
aI0
aI0
aI3
aa(lp15
I0
aI1
aI8
aI14
aI16
aI6
aI0
aI0
aI0
aI9
aI15
aI10
aI13
aI10
aI0
aI0
aI0
aI1
aI2
aI7
aI16
aI5
aI0
aI0
aI0
aI0
aI4
aI16
aI9
aI0
aI0
aI0
aI0
aI0
aI4
aI16
aI11
aI2
aI0
aI0
aI0
aI0
aI0
aI4
aI13
aI16
aI9
aI0
aI0
aI1
aI8
aI4
aI4
aI13
aI13
aI0
aI0
aI0
aI9
aI14
aI16
aI13
aI7
aI0
aI3
aa(lp16
I0
aI2
aI12
aI13
aI12
aI2
aI0
aI0
aI0
aI2
aI7
aI5
aI15
aI7
aI0
aI0
aI0
aI0
aI0
aI9
aI16
aI2
aI0
aI0
aI0
aI4
aI16
aI14
aI3
aI0
aI0
aI0
aI0
aI2
aI12
aI16
aI14
aI5
aI0
aI0
aI0
aI0
aI0
aI1
aI6
aI15
aI4
aI0
aI0
aI0
aI1
aI0
aI2
aI13
aI6
aI0
aI0
aI4
aI13
aI15
aI16
aI12
aI1
aI0
aI3
aa(lp17
I0
aI2
aI10
aI15
aI14
aI9
aI2
aI0
aI0
aI4
aI11
aI4
aI5
aI14
aI8
aI0
aI0
aI0
aI0
aI0
aI8
aI16
aI3
aI0
aI0
aI0
aI0
aI6
aI14
aI3
aI0
aI0
aI0
aI0
aI0
aI8
aI16
aI7
aI0
aI0
aI0
aI0
aI0
aI0
aI7
aI16
aI1
aI0
aI0
aI2
aI4
aI4
aI7
aI15
aI1
aI0
aI0
aI3
aI12
aI14
aI12
aI6
aI0
aI0
aI3
aa(lp18
I0
aI1
aI10
aI16
aI16
aI14
aI1
aI0
aI0
aI1
aI11
aI5
aI4
aI15
aI0
aI0
aI0
aI0
aI0
aI0
aI6
aI10
aI0
aI0
aI0
aI0
aI1
aI13
aI12
aI1
aI0
aI0
aI0
aI0
aI2
aI15
aI16
aI12
aI1
aI0
aI0
aI0
aI0
aI0
aI3
aI14
aI4
aI0
aI0
aI1
aI6
aI0
aI2
aI14
aI3
aI0
aI0
aI2
aI12
aI16
aI15
aI8
aI0
aI0
aI3
aa(lp19
I0
aI0
aI6
aI12
aI14
aI11
aI0
aI0
aI0
aI1
aI11
aI8
aI10
aI14
aI0
aI0
aI0
aI0
aI0
aI0
aI12
aI9
aI0
aI0
aI0
aI0
aI0
aI11
aI10
aI0
aI0
aI0
aI0
aI0
aI0
aI10
aI16
aI13
aI1
aI0
aI0
aI0
aI0
aI0
aI7
aI15
aI5
aI0
aI0
aI0
aI4
aI4
aI5
aI14
aI3
aI0
aI0
aI0
aI10
aI15
aI12
aI8
aI0
aI0
aI3
aa(lp20
I0
aI0
aI6
aI16
aI13
aI4
aI0
aI0
aI0
aI0
aI10
aI8
aI8
aI13
aI0
aI0
aI0
aI0
aI0
aI0
aI6
aI11
aI0
aI0
aI0
aI0
aI3
aI7
aI14
aI2
aI0
aI0
aI0
aI2
aI16
aI13
aI15
aI6
aI0
aI0
aI0
aI0
aI3
aI0
aI6
aI14
aI0
aI0
aI0
aI0
aI3
aI4
aI5
aI14
aI0
aI0
aI0
aI0
aI9
aI16
aI12
aI4
aI0
aI0
aI3
aa(lp21
I0
aI2
aI12
aI14
aI12
aI1
aI0
aI0
aI0
aI7
aI13
aI6
aI14
aI5
aI0
aI0
aI0
aI0
aI0
aI3
aI15
aI3
aI0
aI0
aI0
aI2
aI15
aI16
aI14
aI1
aI0
aI0
aI0
aI1
aI6
aI5
aI12
aI13
aI0
aI0
aI0
aI0
aI0
aI0
aI1
aI14
aI6
aI0
aI0
aI4
aI8
aI4
aI5
aI14
aI8
aI0
aI0
aI2
aI13
aI16
aI15
aI9
aI1
aI0
aI3
aa(lp22
I0
aI4
aI15
aI14
aI11
aI4
aI0
aI0
aI0
aI2
aI11
aI8
aI14
aI16
aI1
aI0
aI0
aI0
aI0
aI5
aI15
aI9
aI0
aI0
aI0
aI0
aI9
aI16
aI12
aI0
aI0
aI0
aI0
aI0
aI2
aI8
aI15
aI12
aI1
aI0
aI0
aI0
aI0
aI0
aI2
aI16
aI8
aI0
aI0
aI1
aI4
aI4
aI10
aI16
aI5
aI0
aI0
aI4
aI16
aI15
aI11
aI3
aI0
aI0
aI3
aa(lp23
I0
aI0
aI5
aI10
aI14
aI5
aI0
aI0
aI0
aI4
aI16
aI13
aI13
aI12
aI0
aI0
aI0
aI7
aI10
aI0
aI10
aI7
aI0
aI0
aI0
aI0
aI0
aI6
aI16
aI6
aI0
aI0
aI0
aI0
aI0
aI6
aI14
aI15
aI1
aI0
aI0
aI0
aI0
aI0
aI0
aI11
aI7
aI0
aI0
aI0
aI4
aI8
aI8
aI15
aI7
aI0
aI0
aI0
aI5
aI14
aI12
aI8
aI0
aI0
aI3
aa(lp24
I0
aI0
aI6
aI14
aI16
aI5
aI0
aI0
aI0
aI3
aI16
aI10
aI14
aI14
aI0
aI0
aI0
aI3
aI6
aI1
aI13
aI9
aI0
aI0
aI0
aI0
aI2
aI15
aI16
aI11
aI0
aI0
aI0
aI0
aI2
aI12
aI14
aI16
aI2
aI0
aI0
aI0
aI0
aI0
aI1
aI16
aI7
aI0
aI0
aI0
aI6
aI13
aI10
aI15
aI3
aI0
aI0
aI0
aI10
aI16
aI13
aI5
aI0
aI0
aI3
aa(lp25
I0
aI0
aI7
aI14
aI12
aI1
aI0
aI0
aI0
aI2
aI16
aI12
aI16
aI8
aI0
aI0
aI0
aI2
aI10
aI0
aI12
aI8
aI0
aI0
aI0
aI0
aI5
aI12
aI16
aI3
aI0
aI0
aI0
aI0
aI5
aI12
aI15
aI13
aI1
aI0
aI0
aI0
aI0
aI0
aI5
aI16
aI3
aI0
aI0
aI0
aI12
aI8
aI4
aI13
aI3
aI0
aI0
aI0
aI9
aI16
aI14
aI9
aI0
aI0
aI3
aa(lp26
I0
aI0
aI8
aI16
aI11
aI0
aI0
aI0
aI0
aI1
aI14
aI10
aI16
aI5
aI0
aI0
aI0
aI1
aI4
aI7
aI15
aI1
aI0
aI0
aI0
aI0
aI6
aI16
aI15
aI4
aI0
aI0
aI0
aI0
aI0
aI5
aI10
aI16
aI5
aI0
aI0
aI0
aI4
aI0
aI1
aI16
aI4
aI0
aI0
aI0
aI13
aI8
aI15
aI10
aI0
aI0
aI0
aI0
aI11
aI14
aI5
aI0
aI0
aI0
aI3
aa(lp27
I0
aI1
aI9
aI15
aI16
aI13
aI4
aI0
aI0
aI6
aI9
aI4
aI4
aI13
aI8
aI0
aI0
aI0
aI0
aI0
aI7
aI15
aI4
aI0
aI0
aI0
aI0
aI10
aI16
aI8
aI0
aI0
aI0
aI0
aI0
aI4
aI12
aI13
aI1
aI0
aI0
aI0
aI0
aI0
aI0
aI14
aI8
aI0
aI0
aI0
aI6
aI4
aI7
aI15
aI6
aI0
aI0
aI0
aI8
aI16
aI12
aI5
aI0
aI0
aI3
aa(lp28
I0
aI1
aI13
aI16
aI14
aI6
aI1
aI0
aI0
aI0
aI13
aI7
aI8
aI16
aI4
aI0
aI0
aI0
aI2
aI1
aI12
aI15
aI2
aI0
aI0
aI0
aI2
aI15
aI13
aI3
aI0
aI0
aI0
aI0
aI3
aI14
aI15
aI6
aI0
aI0
aI0
aI0
aI0
aI1
aI8
aI16
aI3
aI0
aI0
aI4
aI15
aI10
aI5
aI16
aI5
aI0
aI0
aI3
aI12
aI15
aI16
aI13
aI1
aI0
aI3
aa(lp29
I0
aI0
aI5
aI12
aI13
aI9
aI5
aI0
aI0
aI1
aI14
aI8
aI6
aI14
aI14
aI0
aI0
aI0
aI6
aI0
aI3
aI15
aI9
aI0
aI0
aI0
aI3
aI12
aI13
aI4
aI0
aI0
aI0
aI0
aI12
aI16
aI14
aI6
aI0
aI0
aI0
aI0
aI0
aI1
aI10
aI16
aI3
aI0
aI0
aI0
aI3
aI8
aI11
aI15
aI3
aI0
aI0
aI0
aI6
aI14
aI10
aI2
aI0
aI0
aI3
aa(lp30
I0
aI0
aI5
aI10
aI15
aI9
aI0
aI0
aI0
aI6
aI14
aI8
aI9
aI16
aI4
aI0
aI0
aI4
aI2
aI2
aI13
aI13
aI0
aI0
aI0
aI0
aI0
aI8
aI16
aI1
aI0
aI0
aI0
aI0
aI0
aI0
aI9
aI13
aI1
aI0
aI0
aI0
aI1
aI2
aI0
aI12
aI7
aI0
aI0
aI0
aI9
aI9
aI4
aI11
aI10
aI0
aI0
aI0
aI4
aI13
aI13
aI10
aI1
aI0
aI3
aa(lp31
I0
aI2
aI16
aI16
aI11
aI2
aI0
aI0
aI0
aI0
aI8
aI11
aI16
aI8
aI0
aI0
aI0
aI0
aI4
aI14
aI15
aI1
aI0
aI0
aI0
aI0
aI13
aI16
aI12
aI1
aI0
aI0
aI0
aI0
aI2
aI8
aI15
aI14
aI1
aI0
aI0
aI0
aI4
aI0
aI3
aI16
aI6
aI0
aI0
aI5
aI15
aI8
aI14
aI15
aI2
aI0
aI0
aI2
aI12
aI12
aI9
aI5
aI0
aI0
aI3
aa(lp32
I0
aI0
aI5
aI10
aI13
aI9
aI0
aI0
aI0
aI7
aI16
aI16
aI16
aI14
aI0
aI0
aI0
aI4
aI6
aI5
aI16
aI7
aI0
aI0
aI0
aI0
aI0
aI1
aI16
aI8
aI0
aI0
aI0
aI0
aI0
aI0
aI16
aI16
aI0
aI0
aI0
aI0
aI0
aI0
aI12
aI16
aI3
aI0
aI0
aI0
aI1
aI11
aI16
aI8
aI0
aI0
aI0
aI0
aI6
aI13
aI7
aI0
aI0
aI0
aI3
aa(lp33
I0
aI3
aI10
aI12
aI15
aI10
aI1
aI0
aI0
aI6
aI11
aI8
aI14
aI16
aI4
aI0
aI0
aI0
aI0
aI4
aI16
aI12
aI0
aI0
aI0
aI0
aI1
aI15
aI12
aI1
aI0
aI0
aI0
aI0
aI0
aI14
aI12
aI0
aI0
aI0
aI0
aI0
aI0
aI8
aI16
aI1
aI0
aI0
aI0
aI1
aI7
aI14
aI13
aI0
aI0
aI0
aI0
aI3
aI15
aI9
aI1
aI0
aI0
aI0
aI3
aa(lp34
I0
aI0
aI6
aI14
aI15
aI6
aI0
aI0
aI0
aI14
aI16
aI16
aI16
aI16
aI0
aI0
aI0
aI8
aI8
aI10
aI16
aI13
aI0
aI0
aI0
aI0
aI0
aI14
aI16
aI7
aI0
aI0
aI0
aI0
aI0
aI6
aI16
aI12
aI0
aI0
aI0
aI0
aI0
aI0
aI12
aI16
aI6
aI0
aI0
aI0
aI0
aI7
aI16
aI16
aI5
aI0
aI0
aI0
aI6
aI16
aI12
aI1
aI0
aI0
aI3
aa(lp35
I0
aI0
aI5
aI11
aI14
aI9
aI1
aI0
aI0
aI6
aI15
aI12
aI13
aI16
aI2
aI0
aI0
aI8
aI5
aI4
aI16
aI9
aI0
aI0
aI0
aI0
aI0
aI4
aI16
aI8
aI0
aI0
aI0
aI0
aI0
aI2
aI15
aI11
aI0
aI0
aI0
aI0
aI0
aI0
aI10
aI16
aI3
aI0
aI0
aI0
aI1
aI11
aI16
aI10
aI1
aI0
aI0
aI0
aI5
aI13
aI6
aI0
aI0
aI0
aI3
aa(lp36
I0
aI1
aI7
aI14
aI16
aI11
aI0
aI0
aI0
aI11
aI16
aI12
aI15
aI16
aI1
aI0
aI0
aI8
aI4
aI3
aI16
aI10
aI0
aI0
aI0
aI0
aI0
aI1
aI16
aI7
aI0
aI0
aI0
aI0
aI0
aI0
aI16
aI11
aI0
aI0
aI0
aI0
aI0
aI0
aI12
aI16
aI0
aI0
aI0
aI0
aI2
aI7
aI15
aI13
aI0
aI0
aI0
aI0
aI10
aI15
aI9
aI1
aI0
aI0
aI3
aa(lp37
I0
aI1
aI6
aI14
aI10
aI1
aI0
aI0
aI0
aI9
aI16
aI15
aI16
aI13
aI0
aI0
aI0
aI6
aI6
aI9
aI16
aI7
aI0
aI0
aI0
aI0
aI0
aI14
aI10
aI0
aI0
aI0
aI0
aI0
aI0
aI8
aI15
aI5
aI0
aI0
aI0
aI0
aI0
aI0
aI13
aI13
aI0
aI0
aI0
aI0
aI2
aI9
aI15
aI8
aI0
aI0
aI0
aI0
aI10
aI16
aI7
aI0
aI0
aI0
aI3
aa(lp38
I0
aI3
aI15
aI11
aI1
aI0
aI0
aI0
aI0
aI8
aI13
aI12
aI7
aI0
aI0
aI0
aI0
aI5
aI5
aI9
aI9
aI0
aI0
aI0
aI0
aI0
aI2
aI14
aI10
aI0
aI0
aI0
aI0
aI0
aI3
aI12
aI15
aI13
aI1
aI0
aI0
aI0
aI0
aI0
aI1
aI15
aI7
aI0
aI0
aI4
aI11
aI5
aI10
aI16
aI4
aI0
aI0
aI4
aI12
aI13
aI12
aI3
aI0
aI0
aI3
aa(lp39
I0
aI0
aI4
aI15
aI14
aI2
aI0
aI0
aI0
aI0
aI14
aI8
aI16
aI2
aI0
aI0
aI0
aI0
aI6
aI3
aI16
aI0
aI0
aI0
aI0
aI0
aI0
aI12
aI16
aI5
aI0
aI0
aI0
aI0
aI0
aI7
aI15
aI16
aI4
aI0
aI0
aI0
aI0
aI0
aI0
aI16
aI4
aI0
aI0
aI0
aI8
aI12
aI10
aI15
aI3
aI0
aI0
aI0
aI6
aI13
aI13
aI4
aI0
aI0
aI3
aa(lp40
I0
aI2
aI11
aI16
aI5
aI0
aI0
aI0
aI0
aI10
aI14
aI12
aI12
aI0
aI0
aI0
aI0
aI3
aI2
aI8
aI11
aI0
aI0
aI0
aI0
aI0
aI0
aI11
aI12
aI0
aI0
aI0
aI0
aI0
aI1
aI13
aI16
aI10
aI0
aI0
aI0
aI0
aI0
aI0
aI4
aI16
aI5
aI0
aI0
aI0
aI8
aI6
aI6
aI16
aI10
aI0
aI0
aI2
aI12
aI13
aI12
aI10
aI1
aI0
aI3
aa(lp41
I0
aI0
aI7
aI15
aI13
aI2
aI0
aI0
aI0
aI4
aI16
aI6
aI13
aI8
aI0
aI0
aI0
aI0
aI7
aI1
aI13
aI7
aI0
aI0
aI0
aI0
aI0
aI2
aI16
aI11
aI0
aI0
aI0
aI0
aI0
aI1
aI12
aI15
aI6
aI0
aI0
aI0
aI0
aI0
aI0
aI5
aI11
aI0
aI0
aI3
aI13
aI9
aI7
aI13
aI7
aI0
aI0
aI0
aI6
aI13
aI15
aI9
aI1
aI0
aI3
aa(lp42
I0
aI0
aI11
aI15
aI8
aI0
aI0
aI0
aI0
aI6
aI16
aI10
aI16
aI0
aI0
aI0
aI0
aI2
aI7
aI8
aI16
aI0
aI0
aI0
aI0
aI0
aI0
aI13
aI16
aI2
aI0
aI0
aI0
aI0
aI0
aI8
aI14
aI13
aI1
aI0
aI0
aI0
aI3
aI0
aI3
aI16
aI5
aI0
aI0
aI0
aI16
aI10
aI12
aI15
aI2
aI0
aI0
aI0
aI12
aI15
aI9
aI2
aI0
aI0
aI3
aa(lp43
I0
aI1
aI12
aI16
aI16
aI8
aI0
aI0
aI0
aI8
aI14
aI8
aI16
aI8
aI0
aI0
aI0
aI1
aI2
aI9
aI15
aI3
aI0
aI0
aI0
aI0
aI12
aI15
aI3
aI0
aI0
aI0
aI0
aI0
aI10
aI15
aI9
aI1
aI0
aI0
aI0
aI0
aI1
aI9
aI16
aI11
aI0
aI0
aI0
aI0
aI1
aI0
aI3
aI16
aI4
aI0
aI0
aI2
aI15
aI16
aI16
aI15
aI4
aI0
aI3
aa(lp44
I0
aI0
aI9
aI15
aI15
aI3
aI0
aI0
aI0
aI8
aI15
aI11
aI16
aI6
aI0
aI0
aI0
aI2
aI1
aI12
aI15
aI1
aI0
aI0
aI0
aI0
aI6
aI16
aI7
aI0
aI0
aI0
aI0
aI0
aI2
aI15
aI15
aI3
aI0
aI0
aI0
aI0
aI0
aI1
aI7
aI15
aI5
aI0
aI0
aI0
aI14
aI1
aI0
aI12
aI12
aI0
aI0
aI0
aI8
aI16
aI16
aI16
aI10
aI0
aI3
aa(lp45
I0
aI0
aI8
aI16
aI16
aI8
aI0
aI0
aI0
aI6
aI14
aI8
aI16
aI9
aI0
aI0
aI0
aI3
aI3
aI9
aI13
aI3
aI0
aI0
aI0
aI0
aI0
aI11
aI15
aI2
aI0
aI0
aI0
aI0
aI0
aI1
aI13
aI13
aI1
aI0
aI0
aI0
aI0
aI0
aI1
aI16
aI5
aI0
aI0
aI0
aI7
aI8
aI4
aI12
aI7
aI0
aI0
aI0
aI10
aI16
aI16
aI16
aI4
aI0
aI3
aa(lp46
I0
aI0
aI9
aI16
aI15
aI1
aI0
aI0
aI0
aI6
aI14
aI9
aI16
aI4
aI0
aI0
aI0
aI3
aI4
aI11
aI15
aI0
aI0
aI0
aI0
aI0
aI8
aI16
aI1
aI0
aI0
aI0
aI0
aI0
aI3
aI14
aI10
aI0
aI0
aI0
aI0
aI0
aI0
aI2
aI15
aI8
aI0
aI0
aI0
aI0
aI5
aI6
aI5
aI16
aI5
aI0
aI0
aI0
aI13
aI16
aI16
aI16
aI5
aI0
aI3
aa(lp47
I0
aI1
aI13
aI16
aI15
aI1
aI0
aI0
aI0
aI5
aI13
aI10
aI16
aI5
aI0
aI0
aI0
aI0
aI0
aI10
aI14
aI1
aI0
aI0
aI0
aI0
aI7
aI16
aI3
aI0
aI0
aI0
aI0
aI0
aI4
aI16
aI13
aI1
aI0
aI0
aI0
aI0
aI0
aI5
aI16
aI12
aI0
aI0
aI0
aI0
aI6
aI6
aI8
aI16
aI6
aI0
aI0
aI0
aI15
aI16
aI16
aI15
aI1
aI0
aI3
aa(lp48
I0
aI2
aI12
aI16
aI16
aI3
aI0
aI0
aI0
aI11
aI10
aI5
aI16
aI4
aI0
aI0
aI0
aI0
aI0
aI11
aI13
aI0
aI0
aI0
aI0
aI0
aI1
aI15
aI9
aI0
aI0
aI0
aI0
aI0
aI0
aI4
aI16
aI5
aI0
aI0
aI0
aI0
aI0
aI0
aI6
aI15
aI3
aI0
aI0
aI0
aI3
aI1
aI0
aI11
aI11
aI0
aI0
aI1
aI16
aI16
aI16
aI16
aI9
aI0
aI3
aa(lp49
I0
aI0
aI9
aI13
aI16
aI6
aI0
aI0
aI0
aI2
aI16
aI14
aI16
aI2
aI0
aI0
aI0
aI0
aI2
aI14
aI8
aI0
aI0
aI0
aI0
aI0
aI4
aI16
aI13
aI6
aI0
aI0
aI0
aI0
aI0
aI4
aI12
aI16
aI6
aI0
aI0
aI0
aI0
aI0
aI0
aI13
aI7
aI0
aI0
aI0
aI5
aI7
aI12
aI15
aI1
aI0
aI0
aI0
aI12
aI16
aI11
aI1
aI0
aI0
aI3
aa(lp50
I0
aI0
aI9
aI14
aI8
aI0
aI0
aI0
aI0
aI7
aI12
aI6
aI15
aI3
aI0
aI0
aI0
aI3
aI1
aI0
aI12
aI8
aI0
aI0
aI0
aI0
aI0
aI7
aI15
aI11
aI0
aI0
aI0
aI0
aI0
aI10
aI11
aI15
aI5
aI0
aI0
aI0
aI0
aI0
aI0
aI9
aI8
aI0
aI0
aI0
aI4
aI7
aI4
aI14
aI5
aI0
aI0
aI0
aI8
aI14
aI16
aI14
aI1
aI0
aI3
aa(lp51
I0
aI1
aI8
aI15
aI13
aI1
aI0
aI0
aI0
aI6
aI14
aI9
aI16
aI4
aI0
aI0
aI0
aI3
aI6
aI1
aI14
aI4
aI0
aI0
aI0
aI0
aI4
aI14
aI16
aI3
aI0
aI0
aI0
aI0
aI9
aI12
aI14
aI16
aI1
aI0
aI0
aI0
aI0
aI0
aI0
aI16
aI8
aI0
aI0
aI3
aI12
aI11
aI10
aI16
aI7
aI0
aI0
aI1
aI10
aI14
aI15
aI10
aI0
aI0
aI3
aa(lp52
I0
aI0
aI7
aI15
aI12
aI1
aI0
aI0
aI0
aI3
aI15
aI5
aI10
aI11
aI0
aI0
aI0
aI0
aI8
aI0
aI4
aI16
aI0
aI0
aI0
aI0
aI0
aI5
aI13
aI9
aI0
aI0
aI0
aI0
aI0
aI8
aI13
aI13
aI1
aI0
aI0
aI0
aI0
aI0
aI1
aI14
aI6
aI0
aI0
aI5
aI15
aI3
aI0
aI15
aI8
aI0
aI0
aI0
aI9
aI16
aI16
aI14
aI3
aI0
aI3
aa(lp53
I0
aI1
aI7
aI12
aI12
aI0
aI0
aI0
aI0
aI3
aI12
aI4
aI15
aI3
aI0
aI0
aI0
aI0
aI0
aI1
aI15
aI3
aI0
aI0
aI0
aI0
aI5
aI15
aI13
aI2
aI0
aI0
aI0
aI0
aI1
aI4
aI8
aI15
aI2
aI0
aI0
aI0
aI0
aI0
aI0
aI16
aI5
aI0
aI0
aI3
aI11
aI4
aI5
aI16
aI3
aI0
aI0
aI0
aI10
aI16
aI13
aI7
aI0
aI0
aI3
aa(lp54
I0
aI1
aI10
aI16
aI13
aI2
aI0
aI0
aI0
aI6
aI14
aI9
aI16
aI6
aI0
aI0
aI0
aI0
aI1
aI0
aI13
aI11
aI0
aI0
aI0
aI0
aI1
aI13
aI16
aI11
aI1
aI0
aI0
aI0
aI2
aI12
aI11
aI16
aI8
aI0
aI0
aI0
aI5
aI0
aI0
aI15
aI9
aI0
aI0
aI3
aI16
aI12
aI8
aI16
aI7
aI0
aI0
aI0
aI10
aI16
aI16
aI11
aI1
aI0
aI3
aa(lp55
I0
aI2
aI12
aI16
aI14
aI1
aI0
aI0
aI0
aI12
aI12
aI8
aI16
aI7
aI0
aI0
aI0
aI2
aI1
aI1
aI16
aI8
aI0
aI0
aI0
aI0
aI2
aI14
aI16
aI10
aI0
aI0
aI0
aI0
aI1
aI11
aI12
aI16
aI7
aI0
aI0
aI0
aI0
aI0
aI0
aI15
aI12
aI0
aI0
aI3
aI13
aI6
aI4
aI16
aI11
aI0
aI0
aI1
aI14
aI16
aI16
aI12
aI3
aI0
aI3
aa(lp56
I0
aI0
aI9
aI16
aI16
aI3
aI0
aI0
aI0
aI5
aI16
aI10
aI14
aI7
aI0
aI0
aI0
aI1
aI10
aI0
aI14
aI10
aI0
aI0
aI0
aI0
aI2
aI15
aI16
aI9
aI0
aI0
aI0
aI0
aI1
aI8
aI11
aI16
aI6
aI0
aI0
aI0
aI0
aI0
aI3
aI16
aI8
aI0
aI0
aI1
aI16
aI11
aI11
aI16
aI4
aI0
aI0
aI0
aI11
aI16
aI16
aI11
aI0
aI0
aI3
aa(lp57
I0
aI1
aI10
aI16
aI16
aI9
aI0
aI0
aI0
aI11
aI15
aI8
aI15
aI12
aI0
aI0
aI0
aI3
aI2
aI2
aI16
aI9
aI0
aI0
aI0
aI0
aI0
aI7
aI16
aI4
aI0
aI0
aI0
aI0
aI0
aI2
aI15
aI11
aI0
aI0
aI0
aI0
aI0
aI0
aI5
aI16
aI6
aI0
aI0
aI0
aI3
aI7
aI6
aI15
aI12
aI0
aI0
aI0
aI12
aI16
aI16
aI14
aI5
aI0
aI3
aa(lp58
I0
aI1
aI10
aI14
aI7
aI0
aI0
aI0
aI0
aI7
aI12
aI5
aI15
aI0
aI0
aI0
aI0
aI4
aI7
aI5
aI15
aI1
aI0
aI0
aI0
aI0
aI2
aI15
aI9
aI0
aI0
aI0
aI0
aI0
aI0
aI9
aI16
aI4
aI0
aI0
aI0
aI0
aI0
aI0
aI4
aI14
aI4
aI0
aI0
aI0
aI10
aI3
aI3
aI10
aI12
aI0
aI0
aI0
aI11
aI16
aI16
aI14
aI4
aI0
aI3
aa(lp59
I0
aI1
aI9
aI16
aI10
aI0
aI0
aI0
aI0
aI6
aI12
aI4
aI15
aI2
aI0
aI0
aI0
aI0
aI0
aI0
aI13
aI3
aI0
aI0
aI0
aI0
aI0
aI10
aI16
aI1
aI0
aI0
aI0
aI0
aI0
aI6
aI13
aI11
aI0
aI0
aI0
aI0
aI0
aI0
aI0
aI14
aI4
aI0
aI0
aI3
aI10
aI1
aI0
aI10
aI8
aI0
aI0
aI0
aI10
aI16
aI16
aI15
aI3
aI0
aI3
aa(lp60
I0
aI0
aI6
aI12
aI12
aI1
aI0
aI0
aI0
aI4
aI16
aI8
aI13
aI7
aI0
aI0
aI0
aI5
aI10
aI0
aI11
aI8
aI0
aI0
aI0
aI0
aI0
aI0
aI14
aI3
aI0
aI0
aI0
aI0
aI0
aI0
aI13
aI8
aI0
aI0
aI0
aI0
aI0
aI0
aI3
aI14
aI2
aI0
aI0
aI0
aI7
aI9
aI4
aI11
aI7
aI0
aI0
aI0
aI7
aI12
aI12
aI13
aI5
aI0
aI3
aa(lp61
I0
aI0
aI5
aI14
aI15
aI2
aI0
aI0
aI0
aI4
aI15
aI7
aI11
aI8
aI0
aI0
aI0
aI4
aI6
aI1
aI15
aI5
aI0
aI0
aI0
aI0
aI0
aI4
aI15
aI4
aI0
aI0
aI0
aI0
aI0
aI0
aI7
aI15
aI1
aI0
aI0
aI0
aI0
aI0
aI0
aI9
aI7
aI0
aI0
aI3
aI12
aI5
aI4
aI12
aI7
aI0
aI0
aI0
aI6
aI13
aI16
aI9
aI1
aI0
aI3
aa(lp62
I0
aI1
aI6
aI13
aI16
aI5
aI0
aI0
aI0
aI6
aI16
aI9
aI15
aI4
aI0
aI0
aI0
aI4
aI9
aI5
aI16
aI2
aI0
aI0
aI0
aI0
aI0
aI8
aI13
aI0
aI0
aI0
aI0
aI0
aI0
aI3
aI15
aI7
aI0
aI0
aI0
aI0
aI0
aI0
aI6
aI15
aI0
aI0
aI0
aI0
aI4
aI6
aI4
aI14
aI6
aI0
aI0
aI0
aI10
aI16
aI16
aI16
aI5
aI0
aI3
aa(lp63
I0
aI0
aI3
aI14
aI11
aI1
aI0
aI0
aI0
aI1
aI15
aI10
aI16
aI5
aI0
aI0
aI0
aI2
aI10
aI2
aI16
aI3
aI0
aI0
aI0
aI0
aI0
aI1
aI16
aI6
aI0
aI0
aI0
aI0
aI0
aI0
aI9
aI15
aI3
aI0
aI0
aI0
aI6
aI0
aI0
aI10
aI9
aI0
aI0
aI2
aI16
aI7
aI4
aI13
aI10
aI0
aI0
aI0
aI5
aI11
aI14
aI11
aI1
aI0
aI3
aa(lp64
I0
aI0
aI6
aI15
aI16
aI7
aI0
aI0
aI0
aI10
aI16
aI9
aI14
aI11
aI0
aI0
aI0
aI5
aI3
aI1
aI14
aI10
aI0
aI0
aI0
aI0
aI0
aI9
aI16
aI5
aI0
aI0
aI0
aI0
aI0
aI8
aI16
aI16
aI4
aI0
aI0
aI0
aI1
aI0
aI1
aI12
aI8
aI0
aI0
aI3
aI13
aI5
aI4
aI13
aI11
aI0
aI0
aI0
aI8
aI16
aI16
aI12
aI2
aI0
aI3
aa(lp65
I0
aI1
aI11
aI14
aI14
aI4
aI0
aI0
aI0
aI3
aI14
aI8
aI10
aI16
aI0
aI0
aI0
aI0
aI0
aI0
aI5
aI16
aI1
aI0
aI0
aI0
aI0
aI3
aI16
aI14
aI0
aI0
aI0
aI0
aI0
aI4
aI12
aI16
aI7
aI0
aI0
aI0
aI0
aI0
aI0
aI9
aI12
aI0
aI0
aI0
aI9
aI8
aI8
aI14
aI13
aI0
aI0
aI0
aI7
aI12
aI12
aI10
aI3
aI0
aI3
aa(lp66
I0
aI0
aI13
aI16
aI16
aI11
aI0
aI0
aI0
aI0
aI10
aI7
aI4
aI16
aI0
aI0
aI0
aI0
aI0
aI0
aI10
aI12
aI0
aI0
aI0
aI0
aI0
aI3
aI13
aI14
aI2
aI0
aI0
aI0
aI0
aI10
aI13
aI14
aI6
aI0
aI0
aI0
aI0
aI0
aI0
aI6
aI11
aI0
aI0
aI1
aI14
aI6
aI4
aI13
aI7
aI0
aI0
aI0
aI9
aI13
aI16
aI12
aI0
aI0
aI3
aa(lp67
I0
aI3
aI11
aI15
aI14
aI2
aI0
aI0
aI0
aI10
aI13
aI8
aI14
aI10
aI0
aI0
aI0
aI5
aI1
aI0
aI13
aI8
aI0
aI0
aI0
aI0
aI0
aI9
aI16
aI8
aI0
aI0
aI0
aI0
aI0
aI5
aI9
aI16
aI3
aI0
aI0
aI0
aI0
aI0
aI0
aI16
aI9
aI0
aI0
aI4
aI12
aI8
aI11
aI15
aI3
aI0
aI0
aI1
aI8
aI12
aI11
aI4
aI0
aI0
aI3
aa(lp68
I0
aI0
aI14
aI4
aI4
aI0
aI0
aI0
aI0
aI9
aI16
aI16
aI16
aI9
aI0
aI0
aI0
aI3
aI11
aI5
aI14
aI15
aI0
aI0
aI0
aI0
aI0
aI14
aI16
aI10
aI0
aI0
aI0
aI0
aI0
aI9
aI16
aI16
aI6
aI0
aI0
aI0
aI1
aI0
aI0
aI7
aI16
aI0
aI0
aI2
aI15
aI4
aI5
aI12
aI15
aI0
aI0
aI0
aI10
aI16
aI16
aI15
aI3
aI0
aI3
aa(lp69
I0
aI0
aI9
aI15
aI16
aI4
aI0
aI0
aI0
aI0
aI8
aI7
aI6
aI16
aI0
aI0
aI0
aI0
aI0
aI0
aI10
aI12
aI0
aI0
aI0
aI0
aI3
aI15
aI15
aI1
aI0
aI0
aI0
aI0
aI1
aI9
aI12
aI11
aI2
aI0
aI0
aI0
aI0
aI0
aI0
aI5
aI10
aI0
aI0
aI0
aI12
aI4
aI4
aI6
aI15
aI0
aI0
aI0
aI5
aI11
aI12
aI12
aI6
aI0
aI3
aa(lp70
I0
aI0
aI12
aI16
aI15
aI6
aI0
aI0
aI0
aI0
aI15
aI13
aI11
aI16
aI3
aI0
aI0
aI0
aI1
aI7
aI5
aI16
aI5
aI0
aI0
aI0
aI1
aI13
aI16
aI11
aI0
aI0
aI0
aI0
aI1
aI10
aI15
aI15
aI1
aI0
aI0
aI0
aI0
aI0
aI0
aI13
aI11
aI0
aI0
aI2
aI11
aI4
aI4
aI14
aI8
aI0
aI0
aI0
aI11
aI16
aI16
aI14
aI1
aI0
aI3
aa(lp71
I0
aI0
aI6
aI16
aI16
aI13
aI1
aI0
aI0
aI0
aI11
aI13
aI7
aI16
aI6
aI0
aI0
aI0
aI1
aI3
aI0
aI16
aI7
aI0
aI0
aI0
aI0
aI2
aI8
aI15
aI2
aI0
aI0
aI0
aI8
aI16
aI16
aI8
aI0
aI0
aI0
aI0
aI0
aI5
aI11
aI15
aI6
aI0
aI0
aI0
aI0
aI0
aI1
aI14
aI12
aI0
aI0
aI0
aI9
aI13
aI16
aI15
aI3
aI0
aI3
aa(lp72
I0
aI0
aI5
aI16
aI16
aI8
aI0
aI0
aI0
aI0
aI6
aI14
aI10
aI16
aI1
aI0
aI0
aI0
aI0
aI4
aI13
aI16
aI1
aI0
aI0
aI0
aI6
aI16
aI16
aI5
aI0
aI0
aI0
aI0
aI1
aI9
aI15
aI10
aI0
aI0
aI0
aI0
aI6
aI0
aI3
aI15
aI5
aI0
aI0
aI0
aI14
aI8
aI11
aI16
aI7
aI0
aI0
aI0
aI5
aI15
aI16
aI13
aI1
aI0
aI3
aa(lp73
I0
aI0
aI5
aI12
aI14
aI3
aI0
aI0
aI0
aI0
aI9
aI10
aI7
aI12
aI0
aI0
aI0
aI0
aI0
aI0
aI6
aI15
aI0
aI0
aI0
aI0
aI1
aI5
aI15
aI7
aI0
aI0
aI0
aI0
aI2
aI14
aI16
aI1
aI0
aI0
aI0
aI0
aI0
aI0
aI8
aI13
aI1
aI0
aI0
aI0
aI4
aI1
aI1
aI10
aI8
aI0
aI0
aI0
aI7
aI13
aI16
aI13
aI7
aI0
aI3
aa(lp74
I0
aI0
aI5
aI16
aI16
aI7
aI0
aI0
aI0
aI0
aI6
aI15
aI8
aI15
aI3
aI0
aI0
aI0
aI0
aI0
aI0
aI15
aI6
aI0
aI0
aI0
aI0
aI1
aI10
aI16
aI5
aI0
aI0
aI0
aI0
aI10
aI16
aI8
aI0
aI0
aI0
aI0
aI4
aI1
aI13
aI13
aI0
aI0
aI0
aI3
aI15
aI5
aI7
aI16
aI0
aI0
aI0
aI0
aI2
aI15
aI16
aI13
aI1
aI0
aI3
aa(lp75
I0
aI1
aI12
aI14
aI16
aI11
aI0
aI0
aI0
aI3
aI15
aI11
aI13
aI16
aI2
aI0
aI0
aI0
aI2
aI11
aI16
aI5
aI0
aI0
aI0
aI0
aI8
aI16
aI16
aI6
aI0
aI0
aI0
aI0
aI0
aI3
aI12
aI16
aI3
aI0
aI0
aI0
aI0
aI0
aI0
aI12
aI15
aI0
aI0
aI3
aI10
aI1
aI3
aI14
aI15
aI0
aI0
aI3
aI11
aI16
aI16
aI16
aI4
aI0
aI3
aa(lp76
I0
aI0
aI8
aI15
aI16
aI8
aI0
aI0
aI0
aI5
aI16
aI12
aI11
aI16
aI0
aI0
aI0
aI3
aI8
aI1
aI12
aI13
aI0
aI0
aI0
aI0
aI0
aI11
aI16
aI13
aI1
aI0
aI0
aI0
aI0
aI5
aI8
aI15
aI9
aI0
aI0
aI0
aI2
aI1
aI0
aI9
aI11
aI0
aI0
aI0
aI14
aI12
aI5
aI15
aI7
aI0
aI0
aI0
aI9
aI16
aI16
aI13
aI1
aI0
aI3
aa(lp77
I0
aI2
aI11
aI16
aI15
aI4
aI0
aI0
aI0
aI11
aI15
aI8
aI15
aI10
aI0
aI0
aI0
aI3
aI3
aI8
aI16
aI7
aI0
aI0
aI0
aI0
aI4
aI16
aI16
aI9
aI0
aI0
aI0
aI0
aI0
aI4
aI7
aI16
aI4
aI0
aI0
aI0
aI0
aI0
aI0
aI13
aI11
aI0
aI0
aI2
aI15
aI6
aI1
aI14
aI10
aI0
aI0
aI2
aI16
aI16
aI16
aI13
aI3
aI0
aI3
aa(lp78
I0
aI0
aI9
aI16
aI10
aI1
aI0
aI0
aI0
aI9
aI16
aI9
aI16
aI6
aI0
aI0
aI0
aI16
aI9
aI3
aI16
aI5
aI0
aI0
aI0
aI3
aI6
aI12
aI16
aI10
aI0
aI0
aI0
aI0
aI1
aI10
aI9
aI15
aI8
aI0
aI0
aI0
aI0
aI0
aI0
aI9
aI15
aI0
aI0
aI0
aI3
aI9
aI2
aI13
aI12
aI0
aI0
aI0
aI7
aI16
aI16
aI15
aI4
aI0
aI3
aa(lp79
I0
aI1
aI12
aI16
aI15
aI3
aI0
aI0
aI0
aI11
aI13
aI5
aI13
aI8
aI0
aI0
aI0
aI3
aI1
aI8
aI16
aI5
aI0
aI0
aI0
aI0
aI3
aI16
aI16
aI13
aI1
aI0
aI0
aI0
aI0
aI0
aI1
aI14
aI6
aI0
aI0
aI0
aI1
aI0
aI0
aI9
aI11
aI0
aI0
aI2
aI15
aI1
aI0
aI13
aI9
aI0
aI0
aI0
aI13
aI16
aI15
aI15
aI2
aI0
aI3
aa(lp80
I0
aI0
aI12
aI16
aI12
aI1
aI0
aI0
aI0
aI8
aI15
aI10
aI15
aI6
aI0
aI0
aI0
aI3
aI6
aI1
aI15
aI3
aI0
aI0
aI0
aI0
aI0
aI10
aI16
aI9
aI1
aI0
aI0
aI0
aI2
aI14
aI12
aI16
aI6
aI0
aI0
aI0
aI4
aI0
aI0
aI10
aI9
aI0
aI0
aI0
aI16
aI8
aI6
aI15
aI7
aI0
aI0
aI0
aI10
aI16
aI16
aI13
aI1
aI0
aI3
aa(lp81
I0
aI0
aI6
aI14
aI16
aI9
aI0
aI0
aI0
aI5
aI16
aI10
aI12
aI12
aI0
aI0
aI0
aI1
aI7
aI0
aI9
aI12
aI0
aI0
aI0
aI0
aI2
aI13
aI16
aI8
aI0
aI0
aI0
aI0
aI2
aI13
aI14
aI16
aI7
aI0
aI0
aI0
aI1
aI0
aI0
aI10
aI9
aI0
aI0
aI0
aI11
aI9
aI5
aI15
aI7
aI0
aI0
aI0
aI7
aI16
aI16
aI10
aI0
aI0
aI3
aa(lp82
I0
aI2
aI12
aI16
aI16
aI13
aI1
aI0
aI0
aI11
aI15
aI4
aI3
aI16
aI7
aI0
aI0
aI7
aI11
aI1
aI13
aI13
aI0
aI0
aI0
aI0
aI0
aI10
aI16
aI15
aI3
aI0
aI0
aI0
aI0
aI1
aI4
aI14
aI11
aI0
aI0
aI1
aI4
aI0
aI0
aI12
aI12
aI0
aI0
aI8
aI14
aI0
aI3
aI16
aI5
aI0
aI0
aI3
aI13
aI16
aI16
aI10
aI0
aI0
aI3
aa(lp83
I0
aI0
aI6
aI9
aI13
aI7
aI0
aI0
aI0
aI7
aI16
aI12
aI13
aI14
aI0
aI0
aI0
aI5
aI3
aI1
aI15
aI7
aI0
aI0
aI0
aI0
aI0
aI5
aI16
aI1
aI0
aI0
aI0
aI0
aI0
aI4
aI16
aI6
aI0
aI0
aI0
aI0
aI0
aI0
aI10
aI16
aI10
aI0
aI0
aI0
aI0
aI1
aI7
aI16
aI10
aI0
aI0
aI0
aI4
aI15
aI13
aI8
aI0
aI0
aI3
aa(lp84
I0
aI1
aI8
aI14
aI13
aI2
aI0
aI0
aI0
aI8
aI15
aI12
aI16
aI10
aI0
aI0
aI0
aI3
aI3
aI3
aI16
aI4
aI0
aI0
aI0
aI0
aI0
aI4
aI14
aI0
aI0
aI0
aI0
aI0
aI0
aI3
aI16
aI5
aI0
aI0
aI0
aI0
aI0
aI0
aI8
aI16
aI5
aI0
aI0
aI0
aI2
aI7
aI9
aI16
aI6
aI0
aI0
aI0
aI7
aI15
aI11
aI5
aI0
aI0
aI3
aa(lp85
I0
aI0
aI5
aI12
aI15
aI10
aI1
aI0
aI0
aI6
aI16
aI16
aI16
aI15
aI2
aI0
aI0
aI4
aI14
aI16
aI16
aI5
aI0
aI0
aI0
aI0
aI5
aI16
aI8
aI0
aI0
aI0
aI0
aI0
aI3
aI16
aI16
aI10
aI1
aI0
aI0
aI0
aI0
aI3
aI16
aI16
aI7
aI0
aI0
aI0
aI4
aI14
aI16
aI12
aI0
aI0
aI0
aI0
aI4
aI14
aI8
aI0
aI0
aI0
aI3
aa(lp86
I0
aI0
aI1
aI10
aI14
aI7
aI1
aI0
aI0
aI4
aI16
aI12
aI11
aI16
aI4
aI0
aI0
aI6
aI6
aI0
aI5
aI15
aI1
aI0
aI0
aI0
aI0
aI3
aI16
aI6
aI0
aI0
aI0
aI0
aI0
aI6
aI16
aI11
aI0
aI0
aI0
aI0
aI0
aI0
aI10
aI16
aI4
aI0
aI0
aI0
aI0
aI7
aI10
aI16
aI4
aI0
aI0
aI0
aI0
aI7
aI13
aI5
aI0
aI0
aI3
aa(lp87
I0
aI1
aI10
aI13
aI16
aI9
aI0
aI0
aI0
aI11
aI16
aI14
aI16
aI16
aI2
aI0
aI0
aI7
aI6
aI3
aI16
aI11
aI0
aI0
aI0
aI0
aI0
aI5
aI16
aI9
aI0
aI0
aI0
aI0
aI0
aI3
aI16
aI12
aI0
aI0
aI0
aI0
aI0
aI0
aI9
aI16
aI5
aI0
aI0
aI0
aI3
aI9
aI16
aI15
aI1
aI0
aI0
aI0
aI12
aI15
aI11
aI1
aI0
aI0
aI3
aa(lp88
I0
aI0
aI8
aI12
aI5
aI0
aI0
aI0
aI0
aI3
aI15
aI13
aI15
aI0
aI0
aI0
aI0
aI0
aI0
aI9
aI13
aI0
aI0
aI0
aI0
aI0
aI0
aI13
aI12
aI0
aI0
aI0
aI0
aI0
aI0
aI7
aI16
aI11
aI3
aI0
aI0
aI0
aI0
aI0
aI3
aI14
aI14
aI0
aI0
aI0
aI4
aI7
aI7
aI15
aI12
aI0
aI0
aI0
aI8
aI13
aI12
aI6
aI0
aI0
aI3
aa(lp89
I0
aI0
aI4
aI15
aI8
aI0
aI0
aI0
aI0
aI1
aI14
aI12
aI16
aI1
aI0
aI0
aI0
aI2
aI10
aI1
aI16
aI0
aI0
aI0
aI0
aI0
aI3
aI11
aI8
aI0
aI0
aI0
aI0
aI0
aI0
aI10
aI15
aI6
aI0
aI0
aI0
aI0
aI0
aI2
aI12
aI15
aI2
aI0
aI0
aI0
aI1
aI10
aI8
aI15
aI3
aI0
aI0
aI0
aI2
aI15
aI16
aI11
aI0
aI0
aI3
aa(lp90
I0
aI0
aI6
aI15
aI10
aI0
aI0
aI0
aI0
aI0
aI15
aI16
aI9
aI0
aI0
aI0
aI0
aI5
aI16
aI16
aI3
aI0
aI0
aI0
aI0
aI8
aI16
aI16
aI16
aI9
aI0
aI0
aI0
aI0
aI4
aI8
aI13
aI16
aI4
aI0
aI0
aI0
aI0
aI2
aI4
aI16
aI6
aI0
aI0
aI0
aI10
aI15
aI14
aI14
aI1
aI0
aI0
aI0
aI8
aI16
aI14
aI2
aI0
aI0
aI3
aa(lp91
I0
aI0
aI4
aI13
aI16
aI16
aI9
aI0
aI0
aI1
aI15
aI14
aI13
aI16
aI7
aI0
aI0
aI0
aI6
aI0
aI10
aI15
aI2
aI0
aI0
aI0
aI0
aI5
aI16
aI7
aI0
aI0
aI0
aI0
aI0
aI4
aI15
aI15
aI1
aI0
aI0
aI0
aI0
aI1
aI8
aI16
aI5
aI0
aI0
aI0
aI4
aI15
aI13
aI16
aI2
aI0
aI0
aI0
aI3
aI15
aI15
aI5
aI0
aI0
aI3
aa(lp92
I0
aI1
aI11
aI13
aI12
aI4
aI0
aI0
aI0
aI1
aI8
aI8
aI12
aI11
aI0
aI0
aI0
aI0
aI0
aI1
aI11
aI10
aI0
aI0
aI0
aI0
aI7
aI12
aI13
aI1
aI0
aI0
aI0
aI7
aI16
aI16
aI8
aI0
aI0
aI0
aI0
aI0
aI4
aI9
aI14
aI12
aI2
aI0
aI0
aI1
aI10
aI7
aI5
aI16
aI7
aI0
aI0
aI2
aI15
aI16
aI15
aI9
aI1
aI0
aI3
aa(lp93
I0
aI3
aI13
aI16
aI16
aI12
aI1
aI0
aI0
aI1
aI8
aI4
aI5
aI15
aI6
aI0
aI0
aI0
aI0
aI1
aI9
aI15
aI2
aI0
aI0
aI0
aI6
aI16
aI15
aI5
aI0
aI0
aI0
aI0
aI5
aI14
aI16
aI8
aI0
aI0
aI0
aI0
aI0
aI0
aI8
aI16
aI2
aI0
aI0
aI6
aI12
aI6
aI12
aI15
aI1
aI0
aI0
aI4
aI13
aI12
aI11
aI2
aI0
aI0
aI3
aa(lp94
I0
aI1
aI13
aI16
aI16
aI3
aI0
aI0
aI0
aI0
aI2
aI2
aI10
aI14
aI0
aI0
aI0
aI0
aI0
aI0
aI5
aI14
aI0
aI0
aI0
aI0
aI0
aI11
aI16
aI3
aI0
aI0
aI0
aI0
aI0
aI11
aI15
aI8
aI1
aI0
aI0
aI0
aI0
aI0
aI9
aI16
aI4
aI0
aI0
aI0
aI3
aI4
aI7
aI15
aI1
aI0
aI0
aI0
aI15
aI16
aI12
aI5
aI0
aI0
aI3
aa(lp95
I0
aI0
aI10
aI15
aI13
aI8
aI0
aI0
aI0
aI1
aI12
aI4
aI11
aI10
aI0
aI0
aI0
aI0
aI0
aI8
aI13
aI3
aI0
aI0
aI0
aI3
aI13
aI16
aI5
aI0
aI0
aI0
aI0
aI1
aI8
aI13
aI16
aI13
aI2
aI0
aI0
aI0
aI0
aI0
aI1
aI13
aI6
aI0
aI0
aI5
aI10
aI8
aI8
aI16
aI2
aI0
aI0
aI0
aI10
aI16
aI16
aI6
aI0
aI0
aI3
aa(lp96
I0
aI0
aI7
aI15
aI13
aI3
aI0
aI0
aI0
aI0
aI11
aI6
aI8
aI14
aI0
aI0
aI0
aI0
aI0
aI3
aI8
aI12
aI0
aI0
aI0
aI0
aI0
aI16
aI14
aI2
aI0
aI0
aI0
aI0
aI0
aI10
aI15
aI7
aI0
aI0
aI0
aI0
aI0
aI0
aI2
aI11
aI10
aI0
aI0
aI1
aI15
aI3
aI1
aI11
aI10
aI0
aI0
aI0
aI4
aI15
aI16
aI13
aI2
aI0
aI3
aa(lp97
I0
aI0
aI5
aI16
aI16
aI15
aI1
aI0
aI0
aI0
aI10
aI9
aI10
aI16
aI2
aI0
aI0
aI0
aI0
aI1
aI12
aI10
aI0
aI0
aI0
aI0
aI0
aI9
aI16
aI8
aI0
aI0
aI0
aI0
aI0
aI2
aI14
aI16
aI5
aI0
aI0
aI0
aI0
aI4
aI0
aI16
aI5
aI0
aI0
aI0
aI3
aI14
aI8
aI13
aI0
aI0
aI0
aI0
aI4
aI16
aI13
aI3
aI0
aI0
aI3
aa(lp98
I0
aI0
aI9
aI13
aI15
aI10
aI1
aI0
aI0
aI0
aI7
aI4
aI4
aI12
aI13
aI0
aI0
aI0
aI0
aI0
aI0
aI7
aI11
aI0
aI0
aI0
aI2
aI12
aI13
aI12
aI2
aI0
aI0
aI0
aI0
aI10
aI15
aI1
aI0
aI0
aI0
aI0
aI0
aI1
aI11
aI9
aI0
aI0
aI0
aI0
aI12
aI3
aI3
aI15
aI0
aI0
aI0
aI0
aI8
aI16
aI16
aI3
aI0
aI0
aI3
aa(lp99
I0
aI0
aI14
aI16
aI14
aI5
aI0
aI0
aI0
aI0
aI3
aI0
aI2
aI16
aI3
aI0
aI0
aI0
aI0
aI4
aI10
aI15
aI1
aI0
aI0
aI6
aI16
aI16
aI14
aI2
aI0
aI0
aI0
aI1
aI4
aI6
aI12
aI12
aI0
aI0
aI0
aI0
aI0
aI0
aI0
aI12
aI9
aI0
aI0
aI0
aI10
aI0
aI4
aI14
aI5
aI0
aI0
aI0
aI13
aI16
aI13
aI4
aI0
aI0
aI3
aa(lp100
I0
aI1
aI8
aI15
aI10
aI0
aI0
aI0
aI0
aI6
aI15
aI13
aI16
aI8
aI0
aI0
aI0
aI0
aI0
aI3
aI14
aI12
aI0
aI0
aI0
aI0
aI4
aI15
aI16
aI10
aI0
aI0
aI0
aI0
aI7
aI12
aI13
aI16
aI6
aI0
aI0
aI0
aI0
aI0
aI0
aI14
aI8
aI0
aI0
aI0
aI8
aI10
aI13
aI16
aI3
aI0
aI0
aI0
aI10
aI16
aI12
aI5
aI0
aI0
aI3
aa(lp101
I0
aI0
aI6
aI14
aI16
aI5
aI0
aI0
aI0
aI3
aI16
aI13
aI13
aI12
aI0
aI0
aI0
aI1
aI4
aI1
aI12
aI12
aI0
aI0
aI0
aI0
aI4
aI14
aI16
aI6
aI0
aI0
aI0
aI0
aI6
aI14
aI16
aI15
aI2
aI0
aI0
aI0
aI0
aI0
aI8
aI16
aI2
aI0
aI0
aI2
aI16
aI10
aI13
aI15
aI0
aI0
aI0
aI0
aI9
aI14
aI8
aI2
aI0
aI0
aI3
aa(lp102
I0
aI1
aI15
aI12
aI3
aI0
aI0
aI0
aI0
aI1
aI12
aI16
aI15
aI4
aI0
aI0
aI0
aI0
aI0
aI4
aI16
aI10
aI0
aI0
aI0
aI0
aI0
aI15
aI16
aI5
aI0
aI0
aI0
aI0
aI0
aI12
aI14
aI13
aI1
aI0
aI0
aI0
aI0
aI0
aI0
aI8
aI12
aI0
aI0
aI0
aI7
aI8
aI6
aI13
aI13
aI0
aI0
aI0
aI13
aI16
aI16
aI13
aI7
aI0
aI3
aa(lp103
I0
aI3
aI14
aI14
aI4
aI0
aI0
aI0
aI0
aI8
aI15
aI11
aI16
aI6
aI0
aI0
aI0
aI1
aI4
aI4
aI16
aI7
aI0
aI0
aI0
aI0
aI5
aI16
aI16
aI4
aI0
aI0
aI0
aI0
aI2
aI9
aI15
aI16
aI3
aI0
aI0
aI0
aI0
aI0
aI4
aI16
aI8
aI0
aI0
aI0
aI7
aI4
aI11
aI16
aI5
aI0
aI0
aI2
aI14
aI16
aI14
aI7
aI0
aI0
aI3
aa(lp104
I0
aI1
aI9
aI13
aI9
aI2
aI0
aI0
aI0
aI6
aI16
aI10
aI16
aI7
aI0
aI0
aI0
aI0
aI0
aI2
aI16
aI6
aI0
aI0
aI0
aI0
aI2
aI13
aI14
aI0
aI0
aI0
aI0
aI0
aI2
aI13
aI16
aI13
aI0
aI0
aI0
aI0
aI0
aI0
aI4
aI15
aI8
aI0
aI0
aI0
aI8
aI4
aI4
aI14
aI11
aI0
aI0
aI1
aI14
aI16
aI16
aI12
aI1
aI0
aI3
aa(lp105
I0
aI3
aI12
aI16
aI15
aI4
aI0
aI0
aI0
aI4
aI11
aI8
aI14
aI11
aI0
aI0
aI0
aI0
aI0
aI6
aI16
aI3
aI0
aI0
aI0
aI0
aI3
aI15
aI15
aI1
aI0
aI0
aI0
aI0
aI1
aI11
aI15
aI14
aI1
aI0
aI0
aI0
aI0
aI0
aI4
aI12
aI6
aI0
aI0
aI1
aI8
aI12
aI15
aI16
aI6
aI0
aI0
aI2
aI12
aI12
aI11
aI7
aI0
aI0
aI3
aa(lp106
I0
aI0
aI7
aI15
aI14
aI3
aI0
aI0
aI0
aI0
aI8
aI11
aI10
aI12
aI0
aI0
aI0
aI0
aI0
aI0
aI5
aI13
aI0
aI0
aI0
aI0
aI0
aI5
aI15
aI9
aI0
aI0
aI0
aI0
aI0
aI5
aI12
aI15
aI6
aI0
aI0
aI0
aI0
aI0
aI0
aI8
aI12
aI0
aI0
aI0
aI8
aI1
aI1
aI12
aI12
aI0
aI0
aI0
aI9
aI15
aI16
aI13
aI1
aI0
aI3
aa(lp107
I0
aI0
aI11
aI16
aI12
aI1
aI0
aI0
aI0
aI0
aI16
aI12
aI16
aI12
aI0
aI0
aI0
aI0
aI3
aI2
aI12
aI12
aI0
aI0
aI0
aI0
aI5
aI16
aI16
aI6
aI0
aI0
aI0
aI0
aI4
aI12
aI16
aI15
aI2
aI0
aI0
aI0
aI0
aI0
aI5
aI15
aI7
aI0
aI0
aI1
aI11
aI12
aI12
aI16
aI7
aI0
aI0
aI2
aI12
aI15
aI12
aI5
aI1
aI0
aI3
aa(lp108
I0
aI1
aI10
aI16
aI12
aI1
aI0
aI0
aI0
aI7
aI16
aI10
aI13
aI5
aI0
aI0
aI0
aI1
aI6
aI0
aI9
aI8
aI0
aI0
aI0
aI0
aI0
aI7
aI15
aI10
aI0
aI0
aI0
aI0
aI0
aI6
aI12
aI14
aI7
aI0
aI0
aI0
aI0
aI0
aI0
aI2
aI14
aI0
aI0
aI0
aI7
aI6
aI4
aI9
aI14
aI0
aI0
aI0
aI7
aI15
aI16
aI13
aI7
aI0
aI3
aa(lp109
I0
aI0
aI4
aI16
aI14
aI2
aI0
aI0
aI0
aI0
aI16
aI11
aI11
aI10
aI0
aI0
aI0
aI1
aI4
aI1
aI11
aI10
aI0
aI0
aI0
aI0
aI1
aI11
aI16
aI6
aI0
aI0
aI0
aI0
aI6
aI16
aI14
aI13
aI2
aI0
aI0
aI0
aI1
aI2
aI1
aI10
aI11
aI0
aI0
aI0
aI7
aI11
aI6
aI13
aI14
aI0
aI0
aI0
aI3
aI12
aI16
aI15
aI7
aI0
aI3
aa(lp110
I0
aI0
aI5
aI12
aI11
aI2
aI0
aI0
aI0
aI1
aI14
aI15
aI13
aI14
aI0
aI0
aI0
aI2
aI15
aI4
aI6
aI16
aI0
aI0
aI0
aI0
aI0
aI2
aI13
aI12
aI0
aI0
aI0
aI0
aI0
aI11
aI16
aI13
aI2
aI0
aI0
aI0
aI0
aI1
aI5
aI12
aI12
aI0
aI0
aI0
aI8
aI11
aI8
aI14
aI12
aI0
aI0
aI0
aI7
aI16
aI12
aI12
aI3
aI0
aI3
aa(lp111
I0
aI0
aI7
aI13
aI16
aI8
aI0
aI0
aI0
aI9
aI16
aI12
aI8
aI16
aI2
aI0
aI0
aI4
aI7
aI0
aI6
aI15
aI1
aI0
aI0
aI0
aI4
aI13
aI16
aI8
aI0
aI0
aI0
aI0
aI6
aI13
aI15
aI16
aI3
aI0
aI0
aI0
aI0
aI0
aI2
aI11
aI12
aI0
aI0
aI0
aI7
aI8
aI4
aI14
aI12
aI0
aI0
aI0
aI10
aI16
aI16
aI14
aI4
aI0
aI3
aa(lp112
I0
aI0
aI10
aI15
aI10
aI0
aI0
aI0
aI0
aI10
aI15
aI10
aI16
aI6
aI0
aI0
aI0
aI2
aI2
aI13
aI15
aI1
aI0
aI0
aI0
aI0
aI4
aI16
aI16
aI5
aI0
aI0
aI0
aI0
aI0
aI3
aI7
aI15
aI5
aI0
aI0
aI0
aI0
aI0
aI0
aI9
aI13
aI0
aI0
aI0
aI13
aI7
aI5
aI11
aI14
aI0
aI0
aI0
aI7
aI16
aI16
aI14
aI3
aI0
aI3
aa(lp113
I0
aI3
aI13
aI16
aI16
aI6
aI0
aI0
aI0
aI4
aI16
aI9
aI14
aI12
aI0
aI0
aI0
aI0
aI8
aI3
aI14
aI7
aI0
aI0
aI0
aI0
aI0
aI12
aI16
aI3
aI0
aI0
aI0
aI0
aI0
aI5
aI15
aI15
aI1
aI0
aI0
aI0
aI0
aI0
aI1
aI16
aI10
aI0
aI0
aI2
aI12
aI8
aI11
aI16
aI7
aI0
aI0
aI2
aI15
aI16
aI15
aI9
aI0
aI0
aI3
aa(lp114
I0
aI0
aI8
aI14
aI12
aI2
aI0
aI0
aI0
aI3
aI16
aI12
aI15
aI6
aI0
aI0
aI0
aI3
aI7
aI7
aI13
aI9
aI0
aI0
aI0
aI0
aI5
aI15
aI16
aI3
aI0
aI0
aI0
aI0
aI0
aI7
aI14
aI14
aI1
aI0
aI0
aI0
aI0
aI0
aI3
aI16
aI5
aI0
aI0
aI0
aI7
aI5
aI10
aI16
aI5
aI0
aI0
aI0
aI13
aI10
aI8
aI3
aI0
aI0
aI3
aa(lp115
I0
aI2
aI14
aI16
aI11
aI0
aI0
aI0
aI0
aI8
aI15
aI7
aI16
aI0
aI0
aI0
aI0
aI1
aI2
aI0
aI15
aI1
aI0
aI0
aI0
aI0
aI2
aI12
aI14
aI0
aI0
aI0
aI0
aI0
aI1
aI11
aI14
aI11
aI0
aI0
aI0
aI0
aI0
aI0
aI2
aI14
aI5
aI0
aI0
aI2
aI8
aI3
aI4
aI10
aI12
aI0
aI0
aI1
aI13
aI16
aI16
aI14
aI4
aI0
aI3
aa(lp116
I0
aI1
aI11
aI16
aI15
aI2
aI0
aI0
aI0
aI4
aI12
aI8
aI14
aI8
aI0
aI0
aI0
aI1
aI1
aI2
aI15
aI6
aI0
aI0
aI0
aI0
aI0
aI7
aI16
aI4
aI0
aI0
aI0
aI0
aI0
aI1
aI13
aI13
aI0
aI0
aI0
aI0
aI0
aI0
aI2
aI16
aI7
aI0
aI0
aI0
aI10
aI11
aI8
aI15
aI8
aI0
aI0
aI0
aI8
aI14
aI16
aI12
aI1
aI0
aI3
aa(lp117
I0
aI0
aI4
aI13
aI16
aI15
aI4
aI0
aI0
aI3
aI16
aI10
aI8
aI16
aI4
aI0
aI0
aI3
aI10
aI0
aI3
aI16
aI4
aI0
aI0
aI0
aI0
aI11
aI16
aI15
aI0
aI0
aI0
aI0
aI0
aI3
aI14
aI16
aI6
aI0
aI0
aI0
aI0
aI0
aI2
aI16
aI9
aI0
aI0
aI0
aI2
aI12
aI8
aI16
aI8
aI0
aI0
aI0
aI3
aI16
aI16
aI13
aI1
aI0
aI3
aa(lp118
I0
aI1
aI11
aI14
aI14
aI3
aI0
aI0
aI0
aI9
aI14
aI10
aI11
aI14
aI0
aI0
aI0
aI8
aI8
aI0
aI9
aI12
aI0
aI0
aI0
aI3
aI3
aI8
aI16
aI6
aI0
aI0
aI0
aI0
aI0
aI8
aI14
aI16
aI2
aI0
aI0
aI0
aI0
aI0
aI0
aI10
aI12
aI0
aI0
aI0
aI5
aI6
aI4
aI12
aI13
aI0
aI0
aI0
aI11
aI12
aI15
aI14
aI6
aI0
aI3
aa(lp119
I0
aI0
aI10
aI16
aI14
aI3
aI0
aI0
aI0
aI2
aI16
aI10
aI14
aI12
aI0
aI0
aI0
aI0
aI7
aI4
aI14
aI8
aI0
aI0
aI0
aI0
aI0
aI8
aI16
aI9
aI0
aI0
aI0
aI0
aI0
aI0
aI7
aI16
aI4
aI0
aI0
aI0
aI0
aI0
aI0
aI13
aI7
aI0
aI0
aI8
aI11
aI5
aI4
aI16
aI4
aI0
aI0
aI1
aI11
aI15
aI16
aI8
aI1
aI0
aI3
aa(lp120
I0
aI1
aI10
aI16
aI13
aI4
aI0
aI0
aI0
aI9
aI13
aI4
aI11
aI15
aI0
aI0
aI0
aI0
aI0
aI0
aI4
aI16
aI1
aI0
aI0
aI0
aI0
aI3
aI13
aI11
aI0
aI0
aI0
aI0
aI0
aI7
aI16
aI14
aI2
aI0
aI0
aI0
aI0
aI0
aI4
aI15
aI8
aI0
aI0
aI0
aI5
aI4
aI5
aI14
aI9
aI0
aI0
aI0
aI15
aI16
aI14
aI9
aI0
aI0
aI3
aa(lp121
I0
aI3
aI14
aI16
aI12
aI2
aI0
aI0
aI0
aI11
aI12
aI4
aI12
aI8
aI0
aI0
aI0
aI1
aI1
aI0
aI12
aI7
aI0
aI0
aI0
aI0
aI0
aI9
aI16
aI6
aI0
aI0
aI0
aI0
aI0
aI4
aI11
aI16
aI2
aI0
aI0
aI0
aI0
aI0
aI0
aI8
aI11
aI0
aI0
aI1
aI8
aI6
aI7
aI14
aI6
aI0
aI0
aI2
aI11
aI16
aI12
aI8
aI0
aI0
aI3
aa(lp122
I0
aI1
aI10
aI12
aI12
aI2
aI0
aI0
aI0
aI7
aI15
aI8
aI12
aI8
aI0
aI0
aI0
aI0
aI2
aI0
aI13
aI7
aI0
aI0
aI0
aI0
aI0
aI7
aI16
aI4
aI0
aI0
aI0
aI0
aI0
aI5
aI13
aI13
aI1
aI0
aI0
aI0
aI0
aI0
aI1
aI11
aI9
aI0
aI0
aI0
aI8
aI4
aI6
aI14
aI8
aI0
aI0
aI2
aI12
aI16
aI14
aI9
aI1
aI0
aI3
aa(lp123
I0
aI1
aI9
aI12
aI12
aI2
aI0
aI0
aI0
aI7
aI12
aI4
aI11
aI10
aI0
aI0
aI0
aI0
aI1
aI0
aI11
aI8
aI0
aI0
aI0
aI0
aI2
aI15
aI16
aI2
aI0
aI0
aI0
aI0
aI2
aI8
aI12
aI12
aI0
aI0
aI0
aI0
aI0
aI0
aI1
aI16
aI6
aI0
aI0
aI1
aI16
aI3
aI6
aI16
aI6
aI0
aI0
aI1
aI11
aI15
aI12
aI4
aI0
aI0
aI3
aa(lp124
I0
aI0
aI6
aI13
aI12
aI4
aI0
aI0
aI0
aI2
aI16
aI9
aI12
aI13
aI0
aI0
aI0
aI0
aI9
aI0
aI13
aI10
aI0
aI0
aI0
aI0
aI0
aI6
aI16
aI4
aI0
aI0
aI0
aI0
aI0
aI0
aI8
aI14
aI1
aI0
aI0
aI0
aI0
aI0
aI0
aI14
aI9
aI0
aI0
aI0
aI4
aI9
aI5
aI10
aI13
aI0
aI0
aI0
aI7
aI12
aI13
aI12
aI5
aI0
aI3
aa(lp125
I0
aI0
aI8
aI14
aI10
aI2
aI0
aI0
aI0
aI0
aI15
aI14
aI11
aI13
aI0
aI0
aI0
aI0
aI0
aI0
aI5
aI16
aI1
aI0
aI0
aI0
aI0
aI0
aI11
aI14
aI0
aI0
aI0
aI0
aI0
aI0
aI3
aI15
aI3
aI0
aI0
aI0
aI0
aI0
aI0
aI9
aI13
aI0
aI0
aI0
aI3
aI9
aI8
aI15
aI11
aI0
aI0
aI0
aI6
aI16
aI14
aI7
aI1
aI0
aI3
aa(lp126
I0
aI0
aI5
aI14
aI16
aI14
aI1
aI0
aI0
aI2
aI15
aI4
aI7
aI16
aI1
aI0
aI0
aI0
aI5
aI0
aI12
aI12
aI0
aI0
aI0
aI0
aI0
aI6
aI16
aI3
aI0
aI0
aI0
aI0
aI0
aI0
aI7
aI15
aI1
aI0
aI0
aI0
aI0
aI0
aI2
aI16
aI2
aI0
aI0
aI0
aI1
aI4
aI8
aI16
aI4
aI0
aI0
aI0
aI8
aI15
aI13
aI8
aI0
aI0
aI3
aa(lp127
I0
aI0
aI0
aI7
aI12
aI7
aI0
aI0
aI0
aI0
aI13
aI13
aI13
aI12
aI0
aI0
aI0
aI3
aI12
aI0
aI9
aI9
aI0
aI0
aI0
aI0
aI0
aI7
aI16
aI9
aI0
aI0
aI0
aI0
aI0
aI2
aI8
aI16
aI0
aI0
aI0
aI0
aI0
aI0
aI1
aI15
aI3
aI0
aI0
aI0
aI0
aI12
aI9
aI15
aI0
aI0
aI0
aI0
aI1
aI12
aI15
aI5
aI0
aI0
aI3
aa(lp128
I0
aI0
aI12
aI16
aI16
aI10
aI0
aI0
aI0
aI0
aI15
aI13
aI13
aI16
aI1
aI0
aI0
aI0
aI3
aI14
aI16
aI14
aI1
aI0
aI0
aI0
aI0
aI15
aI14
aI2
aI0
aI0
aI0
aI0
aI0
aI7
aI16
aI5
aI0
aI0
aI0
aI0
aI0
aI0
aI9
aI16
aI2
aI0
aI0
aI0
aI6
aI5
aI11
aI16
aI8
aI0
aI0
aI0
aI10
aI16
aI16
aI15
aI3
aI0
aI3
aa(lp129
I0
aI3
aI15
aI16
aI16
aI15
aI1
aI0
aI0
aI14
aI13
aI7
aI8
aI16
aI8
aI0
aI0
aI2
aI1
aI0
aI8
aI16
aI7
aI0
aI0
aI0
aI0
aI7
aI16
aI10
aI0
aI0
aI0
aI0
aI0
aI14
aI13
aI0
aI0
aI0
aI0
aI0
aI0
aI10
aI14
aI2
aI0
aI0
aI0
aI2
aI8
aI5
aI16
aI8
aI0
aI0
aI0
aI2
aI16
aI16
aI13
aI3
aI0
aI0
aI3
aa(lp130
I0
aI1
aI9
aI12
aI15
aI14
aI4
aI0
aI0
aI6
aI14
aI4
aI4
aI14
aI8
aI0
aI0
aI3
aI8
aI0
aI7
aI15
aI2
aI0
aI0
aI0
aI0
aI6
aI14
aI2
aI0
aI0
aI0
aI0
aI0
aI8
aI11
aI0
aI0
aI0
aI0
aI0
aI0
aI1
aI15
aI2
aI0
aI0
aI0
aI0
aI5
aI0
aI12
aI9
aI0
aI0
aI0
aI0
aI11
aI16
aI14
aI3
aI0
aI0
aI3
aa(lp131
I0
aI4
aI15
aI16
aI16
aI12
aI1
aI0
aI0
aI15
aI13
aI5
aI5
aI16
aI8
aI0
aI0
aI7
aI3
aI0
aI10
aI16
aI4
aI0
aI0
aI0
aI1
aI11
aI16
aI10
aI0
aI0
aI0
aI0
aI7
aI16
aI10
aI0
aI0
aI0
aI0
aI0
aI1
aI7
aI16
aI6
aI0
aI0
aI0
aI3
aI8
aI6
aI16
aI10
aI0
aI0
aI0
aI5
aI16
aI16
aI12
aI1
aI0
aI0
aI3
aa(lp132
I0
aI0
aI8
aI16
aI16
aI10
aI0
aI0
aI0
aI1
aI16
aI14
aI11
aI16
aI1
aI0
aI0
aI0
aI12
aI8
aI13
aI15
aI1
aI0
aI0
aI0
aI1
aI7
aI16
aI7
aI0
aI0
aI0
aI0
aI0
aI4
aI16
aI6
aI0
aI0
aI0
aI0
aI0
aI0
aI11
aI14
aI0
aI0
aI0
aI0
aI0
aI4
aI13
aI16
aI2
aI0
aI0
aI0
aI10
aI16
aI16
aI12
aI0
aI0
aI3
aa(lp133
I0
aI2
aI12
aI15
aI16
aI10
aI1
aI0
aI0
aI3
aI16
aI5
aI10
aI16
aI3
aI0
aI0
aI0
aI0
aI5
aI15
aI7
aI0
aI0
aI0
aI0
aI0
aI14
aI8
aI0
aI0
aI0
aI0
aI0
aI0
aI15
aI4
aI0
aI0
aI0
aI0
aI0
aI0
aI4
aI14
aI2
aI0
aI0
aI0
aI1
aI2
aI2
aI15
aI6
aI0
aI0
aI0
aI2
aI12
aI15
aI12
aI1
aI0
aI0
aI3
aa(lp134
I0
aI0
aI9
aI16
aI16
aI7
aI0
aI0
aI0
aI0
aI8
aI9
aI11
aI16
aI1
aI0
aI0
aI0
aI0
aI2
aI13
aI16
aI1
aI0
aI0
aI0
aI0
aI13
aI16
aI6
aI0
aI0
aI0
aI0
aI0
aI3
aI13
aI13
aI2
aI0
aI0
aI0
aI0
aI0
aI1
aI13
aI9
aI0
aI0
aI0
aI4
aI2
aI1
aI12
aI13
aI0
aI0
aI0
aI11
aI16
aI16
aI16
aI11
aI0
aI3
aa(lp135
I0
aI0
aI9
aI16
aI15
aI4
aI0
aI0
aI0
aI0
aI12
aI14
aI12
aI16
aI1
aI0
aI0
aI0
aI0
aI10
aI16
aI14
aI0
aI0
aI0
aI0
aI2
aI16
aI16
aI10
aI1
aI0
aI0
aI0
aI0
aI4
aI8
aI13
aI13
aI0
aI0
aI0
aI0
aI0
aI0
aI4
aI16
aI2
aI0
aI0
aI9
aI6
aI9
aI15
aI15
aI0
aI0
aI0
aI10
aI16
aI16
aI14
aI3
aI0
aI3
aa(lp136
I0
aI0
aI14
aI16
aI16
aI8
aI0
aI0
aI0
aI0
aI6
aI5
aI8
aI16
aI3
aI0
aI0
aI0
aI0
aI0
aI7
aI16
aI2
aI0
aI0
aI0
aI0
aI7
aI16
aI13
aI0
aI0
aI0
aI0
aI0
aI8
aI12
aI16
aI7
aI0
aI0
aI0
aI0
aI0
aI0
aI8
aI14
aI1
aI0
aI0
aI10
aI4
aI4
aI10
aI16
aI1
aI0
aI0
aI12
aI16
aI16
aI16
aI9
aI0
aI3
aa(lp137
I0
aI3
aI15
aI16
aI13
aI4
aI0
aI0
aI0
aI4
aI6
aI4
aI10
aI16
aI0
aI0
aI0
aI0
aI0
aI5
aI14
aI11
aI0
aI0
aI0
aI0
aI10
aI16
aI12
aI0
aI0
aI0
aI0
aI0
aI6
aI9
aI15
aI12
aI0
aI0
aI0
aI0
aI0
aI0
aI0
aI12
aI8
aI0
aI0
aI1
aI6
aI4
aI6
aI15
aI8
aI0
aI0
aI4
aI13
aI13
aI11
aI7
aI0
aI0
aI3
aa(lp138
I0
aI5
aI14
aI16
aI8
aI1
aI0
aI0
aI0
aI4
aI11
aI4
aI12
aI11
aI0
aI0
aI0
aI1
aI2
aI1
aI11
aI11
aI0
aI0
aI0
aI0
aI1
aI15
aI13
aI1
aI0
aI0
aI0
aI0
aI1
aI10
aI16
aI9
aI0
aI0
aI0
aI0
aI0
aI0
aI1
aI13
aI8
aI0
aI0
aI5
aI5
aI0
aI2
aI12
aI8
aI0
aI0
aI5
aI16
aI16
aI16
aI13
aI1
aI0
aI3
aa(lp139
I0
aI0
aI9
aI16
aI15
aI5
aI0
aI0
aI0
aI0
aI4
aI7
aI12
aI15
aI0
aI0
aI0
aI0
aI0
aI1
aI9
aI16
aI3
aI0
aI0
aI0
aI0
aI10
aI16
aI13
aI0
aI0
aI0
aI0
aI0
aI3
aI8
aI15
aI9
aI0
aI0
aI0
aI0
aI0
aI0
aI7
aI14
aI0
aI0
aI0
aI10
aI7
aI4
aI10
aI16
aI1
aI0
aI0
aI7
aI16
aI16
aI16
aI10
aI0
aI3
aa(lp140
I0
aI0
aI15
aI15
aI8
aI1
aI0
aI0
aI0
aI0
aI4
aI6
aI11
aI15
aI2
aI0
aI0
aI0
aI0
aI0
aI0
aI16
aI4
aI0
aI0
aI0
aI4
aI9
aI15
aI13
aI1
aI0
aI0
aI0
aI4
aI12
aI16
aI13
aI1
aI0
aI0
aI0
aI1
aI0
aI2
aI10
aI8
aI0
aI0
aI4
aI11
aI3
aI5
aI12
aI8
aI0
aI0
aI1
aI9
aI15
aI15
aI10
aI0
aI0
aI3
aa(lp141
I0
aI1
aI7
aI11
aI15
aI11
aI1
aI0
aI0
aI4
aI9
aI4
aI0
aI13
aI5
aI0
aI0
aI0
aI0
aI0
aI9
aI15
aI1
aI0
aI0
aI0
aI4
aI15
aI11
aI3
aI0
aI0
aI0
aI0
aI3
aI16
aI8
aI2
aI0
aI0
aI0
aI0
aI0
aI2
aI7
aI16
aI6
aI0
aI0
aI0
aI0
aI6
aI9
aI16
aI5
aI0
aI0
aI0
aI13
aI12
aI7
aI3
aI0
aI0
aI3
aa(lp142
I0
aI2
aI12
aI16
aI15
aI8
aI0
aI0
aI0
aI2
aI7
aI4
aI10
aI16
aI2
aI0
aI0
aI0
aI0
aI3
aI16
aI13
aI0
aI0
aI0
aI0
aI0
aI15
aI15
aI1
aI0
aI0
aI0
aI0
aI0
aI10
aI13
aI0
aI0
aI0
aI0
aI0
aI0
aI0
aI14
aI10
aI1
aI0
aI0
aI0
aI1
aI5
aI10
aI16
aI4
aI0
aI0
aI1
aI13
aI13
aI12
aI8
aI0
aI0
aI3
aa(lp143
I0
aI0
aI9
aI13
aI16
aI9
aI0
aI0
aI0
aI0
aI4
aI5
aI11
aI15
aI0
aI0
aI0
aI0
aI0
aI6
aI15
aI8
aI0
aI0
aI0
aI0
aI0
aI13
aI10
aI0
aI0
aI0
aI0
aI0
aI0
aI8
aI12
aI1
aI0
aI0
aI0
aI0
aI0
aI0
aI9
aI14
aI2
aI0
aI0
aI0
aI0
aI3
aI12
aI16
aI4
aI0
aI0
aI0
aI11
aI16
aI11
aI3
aI0
aI0
aI3
aa(lp144
I0
aI4
aI12
aI14
aI12
aI6
aI0
aI0
aI0
aI2
aI4
aI4
aI5
aI16
aI6
aI0
aI0
aI0
aI0
aI0
aI6
aI16
aI4
aI0
aI0
aI0
aI0
aI5
aI16
aI6
aI0
aI0
aI0
aI0
aI0
aI5
aI16
aI3
aI0
aI0
aI0
aI0
aI0
aI0
aI11
aI13
aI0
aI0
aI0
aI0
aI0
aI5
aI13
aI16
aI0
aI0
aI0
aI5
aI16
aI12
aI11
aI1
aI0
aI0
aI3
aa(lp145
I0
aI7
aI16
aI16
aI16
aI9
aI0
aI0
aI0
aI3
aI8
aI4
aI13
aI16
aI0
aI0
aI0
aI0
aI0
aI8
aI16
aI6
aI0
aI0
aI0
aI0
aI0
aI4
aI16
aI4
aI0
aI0
aI0
aI0
aI0
aI0
aI11
aI15
aI5
aI0
aI0
aI0
aI0
aI0
aI1
aI13
aI15
aI0
aI0
aI0
aI5
aI9
aI15
aI16
aI10
aI0
aI0
aI4
aI16
aI16
aI10
aI3
aI0
aI0
aI3
aa(lp146
I0
aI0
aI7
aI15
aI15
aI3
aI0
aI0
aI0
aI0
aI10
aI14
aI12
aI14
aI0
aI0
aI0
aI0
aI1
aI6
aI16
aI12
aI0
aI0
aI0
aI0
aI1
aI15
aI14
aI3
aI0
aI0
aI0
aI0
aI0
aI9
aI15
aI5
aI0
aI0
aI0
aI0
aI0
aI0
aI5
aI15
aI6
aI0
aI0
aI0
aI7
aI6
aI7
aI13
aI16
aI1
aI0
aI0
aI7
aI16
aI16
aI15
aI8
aI0
aI3
aa(lp147
I0
aI2
aI12
aI16
aI16
aI9
aI0
aI0
aI0
aI2
aI15
aI10
aI7
aI16
aI4
aI0
aI0
aI0
aI0
aI0
aI5
aI16
aI6
aI0
aI0
aI0
aI0
aI6
aI16
aI13
aI0
aI0
aI0
aI0
aI0
aI5
aI13
aI16
aI6
aI0
aI0
aI0
aI0
aI0
aI0
aI9
aI16
aI0
aI0
aI0
aI6
aI4
aI5
aI12
aI16
aI2
aI0
aI2
aI13
aI16
aI16
aI16
aI10
aI0
aI3
aa(lp148
I0
aI2
aI12
aI16
aI15
aI9
aI0
aI0
aI0
aI1
aI4
aI7
aI15
aI14
aI0
aI0
aI0
aI0
aI3
aI15
aI14
aI3
aI0
aI0
aI0
aI0
aI6
aI14
aI5
aI0
aI0
aI0
aI0
aI0
aI1
aI11
aI16
aI7
aI0
aI0
aI0
aI0
aI0
aI0
aI6
aI16
aI7
aI0
aI0
aI0
aI3
aI9
aI14
aI15
aI5
aI0
aI0
aI1
aI14
aI12
aI8
aI1
aI0
aI0
aI3
aa(lp149
I0
aI3
aI13
aI14
aI7
aI1
aI0
aI0
aI0
aI6
aI12
aI8
aI13
aI6
aI0
aI0
aI0
aI1
aI0
aI0
aI10
aI7
aI0
aI0
aI0
aI0
aI0
aI9
aI16
aI4
aI0
aI0
aI0
aI0
aI0
aI9
aI14
aI15
aI4
aI0
aI0
aI0
aI0
aI0
aI0
aI13
aI8
aI0
aI0
aI1
aI8
aI8
aI10
aI16
aI3
aI0
aI0
aI4
aI14
aI16
aI11
aI2
aI0
aI0
aI3
aa(lp150
I0
aI0
aI11
aI15
aI10
aI0
aI0
aI0
aI0
aI3
aI15
aI6
aI16
aI3
aI0
aI0
aI0
aI0
aI0
aI3
aI14
aI2
aI0
aI0
aI0
aI0
aI1
aI14
aI13
aI2
aI0
aI0
aI0
aI0
aI3
aI13
aI14
aI15
aI3
aI0
aI0
aI0
aI0
aI0
aI0
aI14
aI7
aI0
aI0
aI0
aI8
aI1
aI7
aI15
aI2
aI0
aI0
aI0
aI12
aI16
aI14
aI4
aI0
aI0
aI3
aa(lp151
I0
aI0
aI10
aI16
aI15
aI1
aI0
aI0
aI0
aI5
aI15
aI8
aI15
aI6
aI0
aI0
aI0
aI3
aI6
aI1
aI14
aI4
aI0
aI0
aI0
aI0
aI0
aI10
aI16
aI13
aI0
aI0
aI0
aI0
aI0
aI1
aI7
aI16
aI7
aI0
aI0
aI0
aI1
aI2
aI0
aI15
aI7
aI0
aI0
aI0
aI12
aI13
aI6
aI16
aI5
aI0
aI0
aI0
aI9
aI16
aI16
aI9
aI0
aI0
aI3
aa(lp152
I0
aI1
aI8
aI15
aI13
aI2
aI0
aI0
aI0
aI5
aI14
aI8
aI14
aI7
aI0
aI0
aI0
aI1
aI2
aI2
aI15
aI2
aI0
aI0
aI0
aI0
aI0
aI15
aI15
aI3
aI0
aI0
aI0
aI0
aI0
aI9
aI14
aI16
aI3
aI0
aI0
aI0
aI0
aI0
aI0
aI13
aI8
aI0
aI0
aI0
aI6
aI8
aI8
aI15
aI4
aI0
aI0
aI0
aI11
aI12
aI12
aI5
aI0
aI0
aI3
aa(lp153
I0
aI0
aI5
aI14
aI16
aI6
aI0
aI0
aI0
aI2
aI15
aI10
aI7
aI15
aI0
aI0
aI0
aI0
aI3
aI0
aI9
aI7
aI0
aI0
aI0
aI0
aI0
aI6
aI16
aI5
aI0
aI0
aI0
aI0
aI0
aI2
aI11
aI16
aI3
aI0
aI0
aI0
aI0
aI0
aI0
aI11
aI7
aI0
aI0
aI0
aI8
aI8
aI7
aI15
aI3
aI0
aI0
aI0
aI7
aI15
aI13
aI6
aI0
aI0
aI3
aa(lp154
I0
aI1
aI8
aI16
aI14
aI0
aI0
aI0
aI0
aI4
aI15
aI9
aI16
aI3
aI0
aI0
aI0
aI1
aI4
aI7
aI16
aI0
aI0
aI0
aI0
aI0
aI0
aI11
aI16
aI9
aI0
aI0
aI0
aI0
aI0
aI0
aI5
aI15
aI5
aI0
aI0
aI0
aI0
aI0
aI0
aI15
aI5
aI0
aI0
aI0
aI15
aI9
aI9
aI15
aI2
aI0
aI0
aI0
aI6
aI13
aI10
aI4
aI0
aI0
aI3
aa(lp155
I0
aI3
aI15
aI16
aI11
aI1
aI0
aI0
aI0
aI12
aI13
aI10
aI16
aI4
aI0
aI0
aI0
aI5
aI1
aI8
aI16
aI1
aI0
aI0
aI0
aI0
aI0
aI16
aI16
aI6
aI0
aI0
aI0
aI0
aI0
aI7
aI13
aI16
aI5
aI0
aI0
aI0
aI0
aI0
aI1
aI15
aI13
aI0
aI0
aI4
aI11
aI8
aI8
aI15
aI13
aI0
aI0
aI2
aI14
aI16
aI16
aI10
aI1
aI0
aI3
aa(lp156
I0
aI1
aI10
aI16
aI14
aI3
aI0
aI0
aI0
aI4
aI16
aI13
aI15
aI14
aI0
aI0
aI0
aI1
aI1
aI0
aI9
aI16
aI2
aI0
aI0
aI0
aI5
aI14
aI16
aI13
aI0
aI0
aI0
aI0
aI7
aI16
aI16
aI15
aI2
aI0
aI0
aI0
aI0
aI0
aI4
aI15
aI9
aI0
aI0
aI1
aI13
aI8
aI13
aI16
aI5
aI0
aI0
aI1
aI14
aI16
aI14
aI7
aI0
aI0
aI3
aa(lp157
I0
aI3
aI16
aI14
aI10
aI5
aI0
aI0
aI0
aI1
aI8
aI8
aI11
aI16
aI2
aI0
aI0
aI0
aI2
aI6
aI12
aI11
aI1
aI0
aI0
aI0
aI12
aI16
aI16
aI6
aI0
aI0
aI0
aI0
aI0
aI3
aI11
aI16
aI2
aI0
aI0
aI0
aI0
aI0
aI0
aI14
aI7
aI0
aI0
aI1
aI8
aI9
aI14
aI13
aI0
aI0
aI0
aI3
aI16
aI12
aI9
aI1
aI0
aI0
aI3
aa(lp158
I0
aI4
aI14
aI15
aI7
aI1
aI0
aI0
aI0
aI8
aI14
aI12
aI16
aI4
aI0
aI0
aI0
aI0
aI0
aI0
aI12
aI8
aI0
aI0
aI0
aI0
aI2
aI9
aI16
aI7
aI0
aI0
aI0
aI0
aI3
aI13
aI13
aI16
aI5
aI0
aI0
aI0
aI0
aI0
aI0
aI12
aI8
aI0
aI0
aI3
aI11
aI7
aI12
aI16
aI4
aI0
aI0
aI4
aI14
aI16
aI11
aI4
aI0
aI0
aI3
aa(lp159
I0
aI1
aI8
aI14
aI16
aI5
aI0
aI0
aI0
aI5
aI15
aI7
aI11
aI11
aI0
aI0
aI0
aI0
aI1
aI0
aI11
aI9
aI0
aI0
aI0
aI0
aI3
aI11
aI16
aI3
aI0
aI0
aI0
aI0
aI12
aI16
aI16
aI15
aI3
aI0
aI0
aI0
aI2
aI1
aI1
aI12
aI8
aI0
aI0
aI0
aI5
aI9
aI14
aI15
aI3
aI0
aI0
aI0
aI11
aI12
aI8
aI1
aI0
aI0
aI3
aa(lp160
I0
aI3
aI9
aI14
aI15
aI6
aI0
aI0
aI0
aI7
aI13
aI7
aI8
aI16
aI0
aI0
aI0
aI0
aI0
aI0
aI7
aI12
aI0
aI0
aI0
aI0
aI1
aI9
aI16
aI10
aI0
aI0
aI0
aI0
aI5
aI15
aI12
aI15
aI7
aI0
aI0
aI0
aI0
aI0
aI0
aI13
aI9
aI0
aI0
aI0
aI8
aI8
aI14
aI16
aI4
aI0
aI0
aI3
aI16
aI14
aI9
aI1
aI0
aI0
aI3
aa(lp161
I0
aI3
aI11
aI13
aI8
aI1
aI0
aI0
aI0
aI3
aI11
aI8
aI15
aI7
aI0
aI0
aI0
aI0
aI0
aI2
aI14
aI6
aI0
aI0
aI0
aI0
aI7
aI16
aI16
aI11
aI0
aI0
aI0
aI0
aI5
aI12
aI11
aI16
aI8
aI0
aI0
aI0
aI0
aI0
aI6
aI16
aI7
aI0
aI0
aI2
aI12
aI16
aI16
aI7
aI0
aI0
aI0
aI4
aI13
aI11
aI2
aI0
aI0
aI0
aI3
aa(lp162
I0
aI0
aI7
aI12
aI15
aI4
aI0
aI0
aI0
aI4
aI16
aI9
aI7
aI12
aI0
aI0
aI0
aI0
aI5
aI0
aI10
aI8
aI0
aI0
aI0
aI0
aI0
aI13
aI16
aI4
aI0
aI0
aI0
aI0
aI0
aI10
aI9
aI16
aI3
aI0
aI0
aI0
aI0
aI0
aI0
aI11
aI7
aI0
aI0
aI0
aI8
aI6
aI6
aI15
aI3
aI0
aI0
aI0
aI8
aI15
aI12
aI3
aI0
aI0
aI3
aa(lp163
I0
aI0
aI8
aI16
aI9
aI0
aI0
aI0
aI0
aI4
aI15
aI10
aI16
aI0
aI0
aI0
aI0
aI5
aI5
aI7
aI12
aI0
aI0
aI0
aI0
aI0
aI0
aI16
aI14
aI9
aI0
aI0
aI0
aI0
aI0
aI8
aI8
aI15
aI7
aI0
aI0
aI0
aI0
aI0
aI0
aI11
aI8
aI0
aI0
aI0
aI15
aI5
aI7
aI15
aI3
aI0
aI0
aI0
aI6
aI13
aI13
aI6
aI0
aI0
aI3
aa(lp164
I0
aI1
aI11
aI16
aI13
aI1
aI0
aI0
aI0
aI9
aI16
aI10
aI15
aI8
aI0
aI0
aI0
aI7
aI13
aI1
aI12
aI11
aI0
aI0
aI0
aI0
aI0
aI5
aI15
aI9
aI0
aI0
aI0
aI0
aI0
aI16
aI16
aI16
aI7
aI0
aI0
aI0
aI0
aI7
aI3
aI13
aI12
aI0
aI0
aI0
aI7
aI8
aI10
aI16
aI5
aI0
aI0
aI0
aI13
aI16
aI16
aI6
aI0
aI0
aI3
aa(lp165
I0
aI0
aI11
aI16
aI13
aI2
aI0
aI0
aI0
aI7
aI16
aI11
aI12
aI14
aI0
aI0
aI0
aI9
aI13
aI0
aI11
aI14
aI0
aI0
aI0
aI0
aI0
aI11
aI16
aI14
aI2
aI0
aI0
aI0
aI0
aI10
aI9
aI15
aI10
aI0
aI0
aI0
aI0
aI0
aI0
aI9
aI12
aI0
aI0
aI0
aI14
aI8
aI9
aI16
aI6
aI0
aI0
aI0
aI11
aI16
aI16
aI10
aI0
aI0
aI3
aa(lp166
I0
aI0
aI4
aI14
aI11
aI1
aI0
aI0
aI0
aI4
aI16
aI12
aI10
aI8
aI0
aI0
aI0
aI9
aI14
aI1
aI7
aI7
aI0
aI0
aI0
aI1
aI2
aI0
aI15
aI9
aI0
aI0
aI0
aI0
aI0
aI0
aI7
aI15
aI2
aI0
aI0
aI0
aI0
aI0
aI0
aI5
aI11
aI0
aI0
aI0
aI12
aI3
aI4
aI10
aI11
aI0
aI0
aI0
aI6
aI15
aI15
aI11
aI1
aI0
aI3
aa(lp167
I0
aI0
aI9
aI16
aI8
aI0
aI0
aI0
aI0
aI9
aI13
aI4
aI13
aI0
aI0
aI0
aI0
aI7
aI6
aI1
aI14
aI0
aI0
aI0
aI0
aI0
aI0
aI9
aI16
aI9
aI0
aI0
aI0
aI0
aI0
aI8
aI6
aI13
aI6
aI0
aI0
aI0
aI0
aI0
aI0
aI4
aI11
aI0
aI0
aI0
aI6
aI0
aI3
aI12
aI5
aI0
aI0
aI0
aI9
aI16
aI16
aI7
aI0
aI0
aI3
aa(lp168
I0
aI2
aI4
aI9
aI13
aI13
aI0
aI0
aI0
aI5
aI15
aI11
aI12
aI16
aI0
aI0
aI0
aI0
aI0
aI0
aI8
aI13
aI0
aI0
aI0
aI0
aI0
aI0
aI12
aI12
aI0
aI0
aI0
aI0
aI0
aI0
aI9
aI16
aI1
aI0
aI0
aI0
aI0
aI0
aI0
aI15
aI8
aI0
aI0
aI0
aI9
aI14
aI11
aI16
aI6
aI0
aI0
aI0
aI1
aI10
aI15
aI9
aI0
aI0
aI3
aa(lp169
I0
aI8
aI12
aI16
aI13
aI0
aI0
aI0
aI0
aI2
aI10
aI10
aI16
aI8
aI0
aI0
aI0
aI0
aI0
aI0
aI10
aI16
aI4
aI0
aI0
aI0
aI0
aI0
aI10
aI16
aI4
aI0
aI0
aI0
aI0
aI4
aI16
aI14
aI0
aI0
aI0
aI0
aI0
aI0
aI12
aI16
aI8
aI0
aI0
aI0
aI4
aI8
aI15
aI16
aI8
aI0
aI0
aI10
aI16
aI16
aI11
aI3
aI0
aI0
aI3
aa(lp170
I0
aI0
aI11
aI12
aI12
aI13
aI16
aI8
aI0
aI0
aI9
aI12
aI12
aI13
aI16
aI4
aI0
aI0
aI0
aI0
aI2
aI16
aI11
aI0
aI0
aI0
aI0
aI0
aI13
aI14
aI1
aI0
aI0
aI0
aI0
aI0
aI14
aI14
aI0
aI0
aI0
aI0
aI0
aI0
aI6
aI16
aI6
aI0
aI0
aI0
aI1
aI4
aI9
aI16
aI4
aI0
aI0
aI0
aI14
aI16
aI15
aI6
aI0
aI0
aI3
aa(lp171
I0
aI0
aI10
aI16
aI15
aI6
aI0
aI0
aI0
aI0
aI0
aI4
aI16
aI15
aI0
aI0
aI0
aI0
aI0
aI0
aI14
aI13
aI0
aI0
aI0
aI0
aI0
aI0
aI14
aI16
aI3
aI0
aI0
aI0
aI0
aI0
aI3
aI15
aI12
aI0
aI0
aI0
aI0
aI0
aI1
aI15
aI15
aI0
aI0
aI0
aI0
aI2
aI12
aI16
aI8
aI0
aI0
aI0
aI7
aI15
aI15
aI7
aI0
aI0
aI3
aa(lp172
I0
aI2
aI8
aI9
aI14
aI10
aI0
aI0
aI0
aI3
aI11
aI9
aI13
aI16
aI0
aI0
aI0
aI0
aI0
aI0
aI15
aI14
aI0
aI0
aI0
aI0
aI0
aI0
aI16
aI8
aI0
aI0
aI0
aI0
aI0
aI0
aI15
aI13
aI1
aI0
aI0
aI0
aI0
aI0
aI6
aI16
aI8
aI0
aI0
aI0
aI1
aI6
aI15
aI14
aI3
aI0
aI0
aI0
aI14
aI11
aI7
aI1
aI0
aI0
aI3
aa(lp173
I0
aI2
aI5
aI10
aI16
aI6
aI0
aI0
aI0
aI4
aI12
aI13
aI16
aI5
aI0
aI0
aI0
aI0
aI0
aI5
aI16
aI0
aI0
aI0
aI0
aI0
aI0
aI11
aI11
aI0
aI0
aI0
aI0
aI0
aI0
aI11
aI13
aI2
aI0
aI0
aI0
aI0
aI0
aI1
aI12
aI15
aI4
aI0
aI0
aI0
aI0
aI0
aI7
aI16
aI8
aI0
aI0
aI0
aI1
aI13
aI16
aI11
aI2
aI0
aI3
aa(lp174
I0
aI1
aI7
aI13
aI16
aI16
aI8
aI0
aI0
aI5
aI16
aI12
aI16
aI16
aI5
aI0
aI0
aI0
aI1
aI4
aI16
aI8
aI0
aI0
aI0
aI0
aI0
aI11
aI16
aI9
aI1
aI0
aI0
aI0
aI0
aI0
aI9
aI15
aI10
aI0
aI0
aI0
aI0
aI0
aI0
aI13
aI9
aI0
aI0
aI0
aI0
aI5
aI11
aI16
aI5
aI0
aI0
aI0
aI6
aI16
aI14
aI7
aI0
aI0
aI3
aa(lp175
I0
aI2
aI15
aI16
aI16
aI12
aI2
aI0
aI0
aI0
aI2
aI10
aI16
aI16
aI5
aI0
aI0
aI0
aI0
aI11
aI16
aI5
aI0
aI0
aI0
aI0
aI0
aI11
aI16
aI10
aI0
aI0
aI0
aI0
aI0
aI1
aI10
aI16
aI7
aI0
aI0
aI0
aI0
aI0
aI8
aI16
aI9
aI0
aI0
aI0
aI5
aI11
aI16
aI15
aI2
aI0
aI0
aI3
aI16
aI14
aI10
aI2
aI0
aI0
aI3
aa(lp176
I0
aI0
aI5
aI10
aI14
aI8
aI0
aI0
aI0
aI8
aI16
aI13
aI16
aI15
aI0
aI0
aI0
aI0
aI0
aI1
aI16
aI8
aI0
aI0
aI0
aI0
aI0
aI6
aI16
aI2
aI0
aI0
aI0
aI0
aI0
aI5
aI16
aI14
aI2
aI0
aI0
aI0
aI0
aI0
aI6
aI16
aI8
aI0
aI0
aI0
aI1
aI10
aI14
aI15
aI1
aI0
aI0
aI0
aI2
aI13
aI10
aI2
aI0
aI0
aI3
aa(lp177
I0
aI2
aI13
aI11
aI5
aI0
aI0
aI0
aI0
aI1
aI8
aI13
aI16
aI8
aI0
aI0
aI0
aI0
aI0
aI0
aI12
aI16
aI0
aI0
aI0
aI0
aI0
aI7
aI16
aI11
aI0
aI0
aI0
aI0
aI0
aI9
aI16
aI7
aI0
aI0
aI0
aI0
aI0
aI1
aI9
aI16
aI5
aI0
aI0
aI2
aI8
aI5
aI7
aI16
aI6
aI0
aI0
aI3
aI14
aI16
aI13
aI8
aI0
aI0
aI3
aa(lp178
I0
aI0
aI8
aI12
aI14
aI10
aI1
aI0
aI0
aI3
aI16
aI12
aI9
aI15
aI8
aI0
aI0
aI1
aI6
aI0
aI8
aI14
aI4
aI0
aI0
aI0
aI0
aI4
aI16
aI7
aI0
aI0
aI0
aI0
aI0
aI2
aI15
aI7
aI0
aI0
aI0
aI0
aI0
aI0
aI6
aI16
aI1
aI0
aI0
aI0
aI8
aI7
aI8
aI16
aI3
aI0
aI0
aI0
aI6
aI14
aI11
aI6
aI0
aI0
aI3
aa(lp179
I0
aI2
aI12
aI13
aI11
aI1
aI0
aI0
aI0
aI4
aI12
aI12
aI16
aI7
aI0
aI0
aI0
aI0
aI0
aI5
aI16
aI5
aI0
aI0
aI0
aI0
aI0
aI16
aI16
aI1
aI0
aI0
aI0
aI0
aI0
aI4
aI15
aI15
aI0
aI0
aI0
aI0
aI0
aI0
aI1
aI16
aI5
aI0
aI0
aI2
aI8
aI5
aI8
aI16
aI3
aI0
aI0
aI2
aI10
aI16
aI14
aI8
aI0
aI0
aI3
aa(lp180
I0
aI5
aI14
aI10
aI4
aI0
aI0
aI0
aI0
aI3
aI12
aI16
aI16
aI6
aI0
aI0
aI0
aI0
aI1
aI13
aI16
aI5
aI0
aI0
aI0
aI0
aI8
aI16
aI13
aI2
aI0
aI0
aI0
aI0
aI5
aI16
aI13
aI2
aI0
aI0
aI0
aI0
aI0
aI6
aI16
aI15
aI4
aI0
aI0
aI1
aI8
aI9
aI15
aI16
aI5
aI0
aI0
aI4
aI15
aI14
aI8
aI4
aI0
aI0
aI3
aa(lp181
I0
aI1
aI8
aI16
aI15
aI1
aI0
aI0
aI0
aI8
aI12
aI14
aI16
aI0
aI0
aI0
aI0
aI0
aI1
aI16
aI11
aI0
aI0
aI0
aI0
aI0
aI4
aI16
aI12
aI2
aI0
aI0
aI0
aI0
aI1
aI9
aI15
aI16
aI2
aI0
aI0
aI0
aI2
aI0
aI0
aI15
aI8
aI0
aI0
aI1
aI16
aI14
aI5
aI15
aI7
aI0
aI0
aI0
aI7
aI13
aI14
aI10
aI1
aI0
aI3
aa(lp182
I0
aI3
aI15
aI16
aI13
aI5
aI0
aI0
aI0
aI7
aI16
aI12
aI14
aI15
aI1
aI0
aI0
aI1
aI6
aI0
aI11
aI15
aI1
aI0
aI0
aI0
aI0
aI16
aI16
aI5
aI0
aI0
aI0
aI0
aI0
aI6
aI15
aI15
aI2
aI0
aI0
aI0
aI0
aI0
aI2
aI16
aI7
aI0
aI0
aI3
aI8
aI2
aI6
aI16
aI4
aI0
aI0
aI2
aI12
aI16
aI16
aI9
aI0
aI0
aI3
aa(lp183
I0
aI0
aI7
aI16
aI15
aI5
aI0
aI0
aI0
aI0
aI5
aI8
aI11
aI15
aI4
aI0
aI0
aI0
aI0
aI1
aI14
aI13
aI1
aI0
aI0
aI0
aI0
aI10
aI16
aI3
aI0
aI0
aI0
aI0
aI0
aI5
aI16
aI5
aI0
aI0
aI0
aI0
aI2
aI0
aI11
aI12
aI0
aI0
aI0
aI3
aI15
aI11
aI12
aI15
aI0
aI0
aI0
aI0
aI8
aI13
aI11
aI3
aI0
aI0
aI3
aa(lp184
I0
aI2
aI10
aI15
aI11
aI4
aI0
aI0
aI0
aI2
aI10
aI6
aI13
aI12
aI0
aI0
aI0
aI0
aI0
aI2
aI13
aI9
aI0
aI0
aI0
aI0
aI0
aI15
aI16
aI0
aI0
aI0
aI0
aI0
aI0
aI11
aI16
aI9
aI0
aI0
aI0
aI0
aI0
aI0
aI2
aI15
aI11
aI0
aI0
aI0
aI1
aI3
aI11
aI14
aI2
aI0
aI0
aI2
aI15
aI16
aI11
aI1
aI0
aI0
aI3
aa(lp185
I0
aI1
aI7
aI12
aI12
aI2
aI0
aI0
aI0
aI10
aI16
aI16
aI16
aI10
aI0
aI0
aI0
aI0
aI2
aI1
aI16
aI8
aI0
aI0
aI0
aI0
aI0
aI1
aI16
aI9
aI0
aI0
aI0
aI0
aI0
aI2
aI16
aI14
aI0
aI0
aI0
aI0
aI0
aI0
aI4
aI15
aI5
aI0
aI0
aI0
aI3
aI7
aI7
aI16
aI10
aI0
aI0
aI0
aI7
aI16
aI16
aI12
aI0
aI0
aI3
aa(lp186
I0
aI0
aI5
aI12
aI14
aI5
aI0
aI0
aI0
aI2
aI16
aI13
aI16
aI6
aI0
aI0
aI0
aI0
aI0
aI3
aI16
aI4
aI0
aI0
aI0
aI0
aI0
aI15
aI16
aI5
aI0
aI0
aI0
aI0
aI0
aI4
aI11
aI16
aI4
aI0
aI0
aI0
aI0
aI0
aI1
aI16
aI4
aI0
aI0
aI0
aI6
aI12
aI13
aI15
aI1
aI0
aI0
aI0
aI8
aI12
aI11
aI3
aI0
aI0
aI3
aa(lp187
I0
aI0
aI8
aI15
aI16
aI12
aI0
aI0
aI0
aI5
aI16
aI12
aI15
aI14
aI0
aI0
aI0
aI1
aI5
aI1
aI15
aI8
aI0
aI0
aI0
aI0
aI4
aI14
aI16
aI4
aI0
aI0
aI0
aI0
aI3
aI16
aI16
aI14
aI1
aI0
aI0
aI0
aI0
aI0
aI7
aI16
aI4
aI0
aI0
aI0
aI4
aI15
aI16
aI14
aI1
aI0
aI0
aI0
aI9
aI16
aI12
aI3
aI0
aI0
aI3
aa(lp188
I0
aI0
aI6
aI15
aI16
aI7
aI0
aI0
aI0
aI1
aI16
aI12
aI15
aI13
aI0
aI0
aI0
aI0
aI0
aI3
aI16
aI11
aI0
aI0
aI0
aI0
aI5
aI16
aI11
aI0
aI0
aI0
aI0
aI0
aI5
aI13
aI16
aI12
aI0
aI0
aI0
aI0
aI0
aI0
aI9
aI15
aI1
aI0
aI0
aI0
aI5
aI9
aI14
aI15
aI0
aI0
aI0
aI0
aI5
aI16
aI11
aI4
aI0
aI0
aI3
aa(lp189
I0
aI0
aI9
aI16
aI14
aI4
aI0
aI0
aI0
aI1
aI10
aI8
aI16
aI13
aI0
aI0
aI0
aI0
aI0
aI0
aI15
aI11
aI0
aI0
aI0
aI0
aI1
aI12
aI16
aI3
aI0
aI0
aI0
aI0
aI2
aI14
aI16
aI13
aI0
aI0
aI0
aI0
aI0
aI0
aI7
aI16
aI2
aI0
aI0
aI0
aI1
aI4
aI9
aI15
aI2
aI0
aI0
aI0
aI11
aI16
aI13
aI3
aI0
aI0
aI3
aa(lp190
I0
aI0
aI8
aI16
aI16
aI8
aI0
aI0
aI0
aI5
aI15
aI8
aI16
aI14
aI0
aI0
aI0
aI1
aI2
aI2
aI15
aI11
aI0
aI0
aI0
aI0
aI3
aI13
aI16
aI9
aI1
aI0
aI0
aI0
aI8
aI16
aI15
aI15
aI10
aI0
aI0
aI0
aI2
aI2
aI3
aI16
aI6
aI0
aI0
aI0
aI7
aI14
aI16
aI12
aI1
aI0
aI0
aI0
aI14
aI16
aI7
aI0
aI0
aI0
aI3
aa(lp191
I0
aI0
aI7
aI15
aI16
aI16
aI13
aI0
aI0
aI2
aI16
aI9
aI8
aI14
aI16
aI0
aI0
aI1
aI2
aI0
aI4
aI16
aI8
aI0
aI0
aI0
aI0
aI0
aI10
aI15
aI2
aI0
aI0
aI0
aI0
aI0
aI7
aI16
aI8
aI0
aI0
aI0
aI0
aI0
aI3
aI16
aI8
aI0
aI0
aI0
aI0
aI5
aI15
aI13
aI1
aI0
aI0
aI0
aI9
aI16
aI11
aI2
aI0
aI0
aI3
aa(lp192
I0
aI0
aI6
aI15
aI12
aI1
aI0
aI0
aI0
aI8
aI13
aI4
aI10
aI8
aI0
aI0
aI0
aI2
aI0
aI0
aI15
aI6
aI0
aI0
aI0
aI0
aI0
aI6
aI16
aI5
aI0
aI0
aI0
aI0
aI0
aI16
aI16
aI16
aI5
aI0
aI0
aI0
aI4
aI5
aI1
aI16
aI7
aI0
aI0
aI2
aI16
aI10
aI14
aI15
aI0
aI0
aI0
aI0
aI6
aI13
aI9
aI1
aI0
aI0
aI3
aa(lp193
I0
aI0
aI6
aI15
aI16
aI16
aI7
aI0
aI0
aI0
aI8
aI13
aI15
aI16
aI7
aI0
aI0
aI0
aI1
aI15
aI14
aI8
aI0
aI0
aI0
aI0
aI2
aI16
aI16
aI13
aI2
aI0
aI0
aI0
aI0
aI3
aI11
aI16
aI5
aI0
aI0
aI0
aI0
aI0
aI7
aI16
aI4
aI0
aI0
aI0
aI1
aI10
aI15
aI11
aI0
aI0
aI0
aI0
aI6
aI16
aI9
aI0
aI0
aI0
aI3
aa(lp194
I0
aI1
aI7
aI12
aI14
aI5
aI0
aI0
aI0
aI3
aI13
aI8
aI14
aI10
aI0
aI0
aI0
aI0
aI0
aI3
aI16
aI2
aI0
aI0
aI0
aI0
aI0
aI13
aI12
aI3
aI0
aI0
aI0
aI0
aI0
aI8
aI13
aI16
aI4
aI0
aI0
aI0
aI0
aI0
aI4
aI14
aI3
aI0
aI0
aI0
aI1
aI12
aI16
aI9
aI0
aI0
aI0
aI0
aI9
aI13
aI5
aI0
aI0
aI0
aI3
aa(lp195
I0
aI2
aI11
aI15
aI16
aI10
aI0
aI0
aI0
aI5
aI12
aI9
aI16
aI15
aI0
aI0
aI0
aI0
aI0
aI11
aI15
aI5
aI0
aI0
aI0
aI0
aI11
aI16
aI3
aI0
aI0
aI0
aI0
aI0
aI8
aI15
aI16
aI8
aI0
aI0
aI0
aI0
aI0
aI2
aI9
aI16
aI5
aI0
aI0
aI0
aI7
aI11
aI15
aI14
aI3
aI0
aI0
aI0
aI15
aI13
aI7
aI0
aI0
aI0
aI3
aa(lp196
I0
aI0
aI9
aI13
aI13
aI9
aI1
aI0
aI0
aI0
aI16
aI9
aI4
aI14
aI6
aI0
aI0
aI0
aI2
aI0
aI8
aI13
aI0
aI0
aI0
aI0
aI0
aI10
aI16
aI7
aI0
aI0
aI0
aI0
aI0
aI2
aI6
aI15
aI4
aI0
aI0
aI0
aI0
aI0
aI0
aI8
aI8
aI0
aI0
aI6
aI4
aI0
aI2
aI15
aI4
aI0
aI0
aI2
aI10
aI15
aI15
aI7
aI0
aI0
aI3
aa(lp197
I0
aI1
aI10
aI16
aI16
aI8
aI0
aI0
aI0
aI8
aI13
aI6
aI14
aI8
aI0
aI0
aI0
aI1
aI1
aI10
aI15
aI2
aI0
aI0
aI0
aI0
aI3
aI16
aI15
aI8
aI0
aI0
aI0
aI0
aI0
aI2
aI7
aI15
aI6
aI0
aI0
aI0
aI0
aI0
aI0
aI8
aI12
aI0
aI0
aI0
aI2
aI1
aI2
aI13
aI10
aI0
aI0
aI0
aI11
aI16
aI16
aI11
aI1
aI0
aI3
aa(lp198
I0
aI4
aI16
aI16
aI6
aI0
aI0
aI0
aI0
aI7
aI13
aI8
aI15
aI1
aI0
aI0
aI0
aI0
aI0
aI6
aI16
aI2
aI0
aI0
aI0
aI0
aI3
aI16
aI14
aI1
aI0
aI0
aI0
aI0
aI1
aI11
aI15
aI13
aI1
aI0
aI0
aI0
aI0
aI0
aI3
aI14
aI8
aI0
aI0
aI5
aI6
aI0
aI0
aI7
aI16
aI0
aI0
aI3
aI14
aI16
aI16
aI16
aI10
aI0
aI3
aa(lp199
I0
aI2
aI15
aI16
aI15
aI3
aI0
aI0
aI0
aI4
aI16
aI7
aI13
aI13
aI0
aI0
aI0
aI0
aI7
aI12
aI16
aI8
aI0
aI0
aI0
aI0
aI7
aI16
aI15
aI6
aI0
aI0
aI0
aI0
aI0
aI4
aI11
aI16
aI4
aI0
aI0
aI1
aI0
aI0
aI0
aI14
aI11
aI0
aI0
aI9
aI9
aI0
aI6
aI14
aI9
aI0
aI0
aI3
aI14
aI16
aI16
aI13
aI1
aI0
aI3
aa(lp200
I0
aI1
aI13
aI16
aI16
aI6
aI0
aI0
aI0
aI3
aI13
aI6
aI12
aI13
aI0
aI0
aI0
aI0
aI0
aI5
aI15
aI7
aI0
aI0
aI0
aI0
aI2
aI16
aI15
aI2
aI0
aI0
aI0
aI0
aI0
aI4
aI14
aI14
aI1
aI0
aI0
aI0
aI0
aI0
aI3
aI15
aI5
aI0
aI0
aI1
aI10
aI1
aI2
aI13
aI7
aI0
aI0
aI1
aI13
aI16
aI16
aI13
aI1
aI0
aI3
aa(lp201
I0
aI0
aI9
aI14
aI15
aI4
aI0
aI0
aI0
aI0
aI16
aI9
aI9
aI16
aI0
aI0
aI0
aI0
aI0
aI1
aI13
aI12
aI0
aI0
aI0
aI0
aI2
aI15
aI16
aI3
aI0
aI0
aI0
aI0
aI2
aI12
aI12
aI12
aI1
aI0
aI0
aI0
aI0
aI0
aI0
aI9
aI9
aI0
aI0
aI0
aI14
aI9
aI5
aI13
aI12
aI0
aI0
aI0
aI9
aI16
aI16
aI14
aI1
aI0
aI3
aa(lp202
I0
aI0
aI7
aI14
aI15
aI2
aI0
aI0
aI0
aI0
aI8
aI4
aI4
aI15
aI0
aI0
aI0
aI0
aI0
aI0
aI8
aI11
aI0
aI0
aI0
aI0
aI2
aI16
aI16
aI4
aI0
aI0
aI0
aI0
aI1
aI8
aI13
aI13
aI0
aI0
aI0
aI0
aI0
aI0
aI0
aI7
aI10
aI0
aI0
aI2
aI14
aI2
aI3
aI12
aI9
aI0
aI0
aI1
aI12
aI16
aI16
aI10
aI1
aI0
aI3
aa(lp203
I0
aI0
aI6
aI13
aI12
aI2
aI0
aI0
aI0
aI7
aI14
aI4
aI9
aI10
aI0
aI0
aI0
aI8
aI3
aI0
aI10
aI7
aI0
aI0
aI0
aI0
aI2
aI9
aI16
aI2
aI0
aI0
aI0
aI0
aI10
aI12
aI12
aI14
aI1
aI0
aI0
aI0
aI0
aI0
aI0
aI6
aI12
aI0
aI0
aI0
aI11
aI5
aI4
aI12
aI10
aI0
aI0
aI0
aI6
aI13
aI13
aI10
aI1
aI0
aI3
aa(lp204
I0
aI1
aI8
aI13
aI16
aI8
aI0
aI0
aI0
aI11
aI13
aI6
aI8
aI15
aI1
aI0
aI0
aI2
aI1
aI9
aI14
aI5
aI0
aI0
aI0
aI0
aI14
aI16
aI14
aI3
aI0
aI0
aI0
aI0
aI8
aI4
aI10
aI15
aI1
aI0
aI0
aI0
aI0
aI0
aI0
aI13
aI7
aI0
aI0
aI2
aI15
aI8
aI9
aI15
aI1
aI0
aI0
aI1
aI10
aI13
aI13
aI4
aI0
aI0
aI3
aa(lp205
I0
aI3
aI11
aI16
aI7
aI0
aI0
aI0
aI0
aI5
aI12
aI8
aI16
aI0
aI0
aI0
aI0
aI0
aI0
aI10
aI14
aI0
aI0
aI0
aI0
aI0
aI10
aI14
aI3
aI0
aI0
aI0
aI0
aI0
aI10
aI16
aI16
aI15
aI3
aI0
aI0
aI0
aI0
aI0
aI3
aI10
aI8
aI0
aI0
aI0
aI4
aI7
aI10
aI15
aI5
aI0
aI0
aI5
aI13
aI12
aI10
aI3
aI0
aI0
aI3
aa(lp206
I0
aI2
aI11
aI13
aI14
aI11
aI1
aI0
aI0
aI1
aI10
aI5
aI4
aI16
aI4
aI0
aI0
aI0
aI0
aI1
aI10
aI13
aI0
aI0
aI0
aI0
aI0
aI7
aI16
aI1
aI0
aI0
aI0
aI0
aI0
aI5
aI16
aI13
aI2
aI0
aI0
aI0
aI0
aI0
aI3
aI12
aI7
aI0
aI0
aI5
aI8
aI4
aI6
aI15
aI4
aI0
aI0
aI3
aI12
aI14
aI13
aI9
aI0
aI0
aI3
aa(lp207
I0
aI1
aI9
aI12
aI13
aI7
aI0
aI0
aI0
aI6
aI13
aI8
aI7
aI13
aI0
aI0
aI0
aI0
aI2
aI0
aI5
aI12
aI0
aI0
aI0
aI0
aI0
aI5
aI16
aI5
aI0
aI0
aI0
aI0
aI0
aI6
aI16
aI9
aI0
aI0
aI0
aI0
aI0
aI0
aI3
aI13
aI6
aI0
aI0
aI1
aI7
aI3
aI6
aI12
aI6
aI0
aI0
aI0
aI12
aI13
aI13
aI8
aI1
aI0
aI3
aa(lp208
I0
aI2
aI12
aI16
aI13
aI5
aI0
aI0
aI0
aI5
aI12
aI12
aI16
aI8
aI0
aI0
aI0
aI0
aI0
aI4
aI16
aI4
aI0
aI0
aI0
aI0
aI0
aI12
aI14
aI1
aI0
aI0
aI0
aI0
aI0
aI3
aI14
aI16
aI2
aI0
aI0
aI0
aI0
aI0
aI1
aI10
aI8
aI0
aI0
aI0
aI8
aI4
aI6
aI13
aI6
aI0
aI0
aI0
aI12
aI16
aI14
aI9
aI0
aI0
aI3
aa(lp209
I0
aI0
aI5
aI15
aI9
aI0
aI0
aI0
aI0
aI2
aI13
aI8
aI15
aI5
aI0
aI0
aI0
aI2
aI2
aI0
aI8
aI5
aI0
aI0
aI0
aI0
aI5
aI9
aI15
aI2
aI0
aI0
aI0
aI0
aI11
aI15
aI15
aI11
aI0
aI0
aI0
aI0
aI0
aI0
aI1
aI14
aI1
aI0
aI0
aI0
aI4
aI9
aI4
aI11
aI3
aI0
aI0
aI0
aI5
aI12
aI13
aI9
aI0
aI0
aI3
aa(lp210
I0
aI0
aI3
aI9
aI14
aI8
aI0
aI0
aI0
aI0
aI13
aI16
aI14
aI16
aI0
aI0
aI0
aI0
aI10
aI0
aI12
aI10
aI0
aI0
aI0
aI0
aI0
aI7
aI16
aI8
aI0
aI0
aI0
aI0
aI0
aI3
aI13
aI15
aI1
aI0
aI0
aI0
aI0
aI1
aI1
aI13
aI4
aI0
aI0
aI0
aI3
aI13
aI11
aI14
aI1
aI0
aI0
aI0
aI3
aI16
aI10
aI1
aI0
aI0
aI3
aa(lp211
I0
aI4
aI15
aI15
aI8
aI1
aI0
aI0
aI0
aI4
aI16
aI11
aI16
aI15
aI0
aI0
aI0
aI1
aI5
aI0
aI11
aI16
aI4
aI0
aI0
aI0
aI0
aI6
aI16
aI13
aI1
aI0
aI0
aI0
aI0
aI12
aI16
aI1
aI0
aI0
aI0
aI0
aI0
aI6
aI16
aI5
aI0
aI0
aI0
aI0
aI0
aI4
aI16
aI8
aI0
aI0
aI0
aI4
aI16
aI16
aI16
aI6
aI0
aI0
aI3
aa(lp212
I0
aI0
aI0
aI5
aI14
aI16
aI16
aI5
aI0
aI0
aI10
aI16
aI15
aI16
aI16
aI7
aI0
aI4
aI15
aI6
aI1
aI16
aI12
aI0
aI0
aI0
aI2
aI0
aI5
aI16
aI7
aI0
aI0
aI0
aI0
aI0
aI4
aI16
aI2
aI0
aI0
aI0
aI0
aI0
aI6
aI16
aI1
aI0
aI0
aI0
aI0
aI2
aI15
aI14
aI0
aI0
aI0
aI0
aI0
aI3
aI15
aI7
aI0
aI0
aI3
aa(lp213
I0
aI1
aI10
aI16
aI16
aI12
aI2
aI0
aI0
aI8
aI11
aI8
aI5
aI12
aI8
aI0
aI0
aI1
aI0
aI0
aI5
aI15
aI7
aI0
aI0
aI0
aI10
aI15
aI16
aI9
aI0
aI0
aI0
aI0
aI5
aI9
aI16
aI9
aI0
aI0
aI0
aI0
aI0
aI0
aI3
aI16
aI0
aI0
aI0
aI1
aI8
aI2
aI5
aI16
aI0
aI0
aI0
aI2
aI14
aI16
aI12
aI5
aI0
aI0
aI3
aa(lp214
I0
aI1
aI10
aI15
aI15
aI6
aI0
aI0
aI0
aI8
aI16
aI15
aI14
aI15
aI3
aI0
aI0
aI3
aI6
aI3
aI15
aI15
aI0
aI0
aI0
aI0
aI0
aI12
aI16
aI5
aI0
aI0
aI0
aI0
aI0
aI8
aI16
aI2
aI0
aI0
aI0
aI0
aI0
aI4
aI16
aI8
aI0
aI0
aI0
aI0
aI4
aI15
aI16
aI4
aI0
aI0
aI0
aI0
aI14
aI16
aI7
aI0
aI0
aI0
aI3
aa(lp215
I0
aI0
aI9
aI15
aI16
aI9
aI0
aI0
aI0
aI11
aI16
aI9
aI11
aI16
aI2
aI0
aI0
aI5
aI3
aI1
aI14
aI14
aI1
aI0
aI0
aI0
aI0
aI7
aI16
aI5
aI0
aI0
aI0
aI0
aI0
aI4
aI16
aI5
aI0
aI0
aI0
aI0
aI0
aI0
aI10
aI16
aI0
aI0
aI0
aI0
aI1
aI6
aI15
aI13
aI0
aI0
aI0
aI0
aI14
aI15
aI9
aI1
aI0
aI0
aI3
aa(lp216
I0
aI0
aI7
aI9
aI15
aI12
aI1
aI0
aI0
aI8
aI15
aI10
aI9
aI16
aI4
aI0
aI0
aI6
aI3
aI1
aI12
aI14
aI0
aI0
aI0
aI0
aI0
aI6
aI16
aI5
aI0
aI0
aI0
aI0
aI0
aI5
aI15
aI8
aI0
aI0
aI0
aI0
aI0
aI0
aI8
aI16
aI3
aI0
aI0
aI0
aI1
aI7
aI15
aI9
aI0
aI0
aI0
aI0
aI7
aI16
aI8
aI0
aI0
aI0
aI3
aa(lp217
I0
aI0
aI3
aI9
aI16
aI13
aI0
aI0
aI0
aI4
aI15
aI12
aI12
aI16
aI0
aI0
aI0
aI8
aI4
aI4
aI14
aI9
aI0
aI0
aI0
aI0
aI0
aI8
aI16
aI7
aI0
aI0
aI0
aI0
aI0
aI1
aI16
aI15
aI0
aI0
aI0
aI0
aI0
aI0
aI0
aI16
aI4
aI0
aI0
aI0
aI0
aI7
aI14
aI15
aI2
aI0
aI0
aI0
aI1
aI15
aI12
aI2
aI0
aI0
aI3
aa(lp218
I0
aI1
aI12
aI15
aI3
aI0
aI0
aI0
aI0
aI8
aI15
aI14
aI13
aI0
aI0
aI0
aI0
aI3
aI5
aI9
aI14
aI0
aI0
aI0
aI0
aI0
aI2
aI16
aI14
aI2
aI0
aI0
aI0
aI0
aI3
aI16
aI16
aI15
aI2
aI0
aI0
aI0
aI1
aI0
aI2
aI14
aI5
aI0
aI0
aI0
aI14
aI11
aI9
aI16
aI6
aI0
aI0
aI3
aI16
aI16
aI14
aI7
aI1
aI0
aI3
aa(lp219
I0
aI0
aI10
aI15
aI6
aI0
aI0
aI0
aI0
aI7
aI15
aI11
aI14
aI0
aI0
aI0
aI0
aI3
aI9
aI2
aI16
aI0
aI0
aI0
aI0
aI0
aI0
aI6
aI16
aI0
aI0
aI0
aI0
aI0
aI0
aI14
aI16
aI14
aI1
aI0
aI0
aI0
aI0
aI1
aI5
aI16
aI5
aI0
aI0
aI3
aI11
aI2
aI7
aI16
aI5
aI0
aI0
aI1
aI13
aI16
aI13
aI7
aI0
aI0
aI3
aa(lp220
I0
aI0
aI10
aI15
aI9
aI0
aI0
aI0
aI0
aI6
aI15
aI11
aI16
aI0
aI0
aI0
aI0
aI2
aI4
aI4
aI16
aI0
aI0
aI0
aI0
aI0
aI0
aI11
aI16
aI7
aI0
aI0
aI0
aI0
aI0
aI7
aI12
aI16
aI4
aI0
aI0
aI0
aI0
aI0
aI0
aI16
aI7
aI0
aI0
aI3
aI16
aI12
aI10
aI16
aI3
aI0
aI0
aI1
aI10
aI14
aI12
aI6
aI0
aI0
aI3
aa(lp221
I0
aI0
aI12
aI15
aI9
aI0
aI0
aI0
aI0
aI8
aI13
aI10
aI16
aI2
aI0
aI0
aI0
aI4
aI4
aI0
aI15
aI6
aI0
aI0
aI0
aI0
aI0
aI7
aI16
aI9
aI0
aI0
aI0
aI0
aI0
aI5
aI10
aI16
aI4
aI0
aI0
aI0
aI0
aI0
aI0
aI8
aI9
aI0
aI0
aI0
aI8
aI5
aI4
aI9
aI12
aI0
aI0
aI1
aI14
aI14
aI16
aI14
aI3
aI0
aI3
aa(lp222
I0
aI3
aI12
aI12
aI3
aI0
aI0
aI0
aI0
aI8
aI10
aI11
aI9
aI0
aI0
aI0
aI0
aI0
aI2
aI14
aI4
aI0
aI0
aI0
aI0
aI0
aI12
aI13
aI1
aI0
aI0
aI0
aI0
aI0
aI3
aI13
aI15
aI3
aI0
aI0
aI0
aI0
aI0
aI0
aI7
aI14
aI1
aI0
aI0
aI2
aI4
aI4
aI3
aI11
aI7
aI0
aI0
aI5
aI12
aI12
aI14
aI16
aI8
aI0
aI3
aa(lp223
I0
aI0
aI9
aI15
aI16
aI3
aI0
aI0
aI0
aI5
aI15
aI10
aI16
aI4
aI0
aI0
aI0
aI0
aI2
aI7
aI13
aI0
aI0
aI0
aI0
aI0
aI4
aI16
aI5
aI0
aI0
aI0
aI0
aI0
aI2
aI15
aI16
aI11
aI1
aI0
aI0
aI0
aI0
aI0
aI6
aI15
aI6
aI0
aI0
aI0
aI5
aI5
aI4
aI13
aI8
aI0
aI0
aI0
aI14
aI16
aI16
aI15
aI3
aI0
aI3
aa(lp224
I0
aI2
aI12
aI16
aI16
aI8
aI0
aI0
aI0
aI8
aI10
aI9
aI16
aI6
aI0
aI0
aI0
aI0
aI1
aI13
aI13
aI0
aI0
aI0
aI0
aI0
aI8
aI16
aI5
aI0
aI0
aI0
aI0
aI0
aI2
aI14
aI15
aI3
aI0
aI0
aI0
aI0
aI0
aI0
aI9
aI15
aI3
aI0
aI0
aI0
aI0
aI3
aI4
aI14
aI11
aI0
aI0
aI3
aI15
aI16
aI16
aI16
aI9
aI0
aI3
aa(lp225
I0
aI0
aI6
aI13
aI13
aI6
aI0
aI0
aI0
aI1
aI14
aI5
aI7
aI13
aI0
aI0
aI0
aI0
aI0
aI0
aI2
aI15
aI0
aI0
aI0
aI0
aI0
aI10
aI14
aI9
aI0
aI0
aI0
aI0
aI0
aI8
aI9
aI16
aI3
aI0
aI0
aI1
aI5
aI0
aI0
aI16
aI4
aI0
aI0
aI1
aI16
aI4
aI5
aI15
aI3
aI0
aI0
aI0
aI6
aI16
aI14
aI5
aI0
aI0
aI3
aa(lp226
I0
aI0
aI9
aI12
aI9
aI0
aI0
aI0
aI0
aI3
aI15
aI10
aI16
aI1
aI0
aI0
aI0
aI0
aI1
aI1
aI16
aI4
aI0
aI0
aI0
aI0
aI3
aI13
aI16
aI2
aI0
aI0
aI0
aI0
aI7
aI12
aI13
aI14
aI1
aI0
aI0
aI3
aI1
aI0
aI4
aI16
aI5
aI0
aI0
aI12
aI12
aI4
aI11
aI15
aI2
aI0
aI0
aI4
aI13
aI15
aI11
aI3
aI0
aI0
aI3
aa(lp227
I0
aI0
aI8
aI14
aI11
aI0
aI0
aI0
aI0
aI0
aI14
aI4
aI11
aI8
aI0
aI0
aI0
aI0
aI0
aI0
aI9
aI8
aI0
aI0
aI0
aI0
aI2
aI10
aI16
aI3
aI0
aI0
aI0
aI0
aI5
aI9
aI9
aI15
aI2
aI0
aI0
aI0
aI0
aI0
aI0
aI10
aI7
aI0
aI0
aI7
aI12
aI1
aI1
aI14
aI7
aI0
aI0
aI0
aI8
aI16
aI16
aI10
aI1
aI0
aI3
aa(lp228
I0
aI1
aI10
aI15
aI14
aI2
aI0
aI0
aI0
aI7
aI10
aI3
aI11
aI10
aI0
aI0
aI0
aI1
aI1
aI0
aI8
aI14
aI0
aI0
aI0
aI0
aI3
aI9
aI15
aI9
aI0
aI0
aI0
aI0
aI4
aI8
aI9
aI15
aI2
aI0
aI0
aI0
aI0
aI0
aI0
aI14
aI6
aI0
aI0
aI0
aI6
aI1
aI0
aI13
aI8
aI0
aI0
aI0
aI9
aI16
aI16
aI12
aI3
aI0
aI3
aa(lp229
I0
aI1
aI10
aI16
aI10
aI1
aI0
aI0
aI0
aI8
aI14
aI5
aI10
aI13
aI2
aI0
aI0
aI1
aI4
aI0
aI11
aI15
aI2
aI0
aI0
aI0
aI0
aI0
aI16
aI7
aI0
aI0
aI0
aI0
aI0
aI0
aI14
aI11
aI0
aI0
aI0
aI0
aI0
aI0
aI0
aI14
aI11
aI0
aI0
aI0
aI10
aI5
aI4
aI10
aI13
aI0
aI0
aI0
aI10
aI14
aI16
aI14
aI9
aI0
aI3
aa(lp230
I0
aI0
aI5
aI15
aI13
aI7
aI0
aI0
aI0
aI4
aI15
aI8
aI7
aI16
aI4
aI0
aI0
aI6
aI12
aI1
aI10
aI14
aI1
aI0
aI0
aI0
aI0
aI12
aI12
aI2
aI0
aI0
aI0
aI0
aI0
aI14
aI11
aI3
aI0
aI0
aI0
aI0
aI0
aI1
aI10
aI14
aI0
aI0
aI0
aI0
aI0
aI0
aI4
aI14
aI8
aI0
aI0
aI0
aI4
aI16
aI16
aI14
aI4
aI0
aI3
aa(lp231
I0
aI0
aI9
aI13
aI7
aI0
aI0
aI0
aI0
aI7
aI14
aI4
aI14
aI4
aI0
aI0
aI0
aI2
aI2
aI3
aI15
aI2
aI0
aI0
aI0
aI0
aI0
aI16
aI11
aI0
aI0
aI0
aI0
aI0
aI0
aI8
aI15
aI11
aI0
aI0
aI0
aI0
aI0
aI0
aI0
aI12
aI7
aI0
aI0
aI0
aI10
aI4
aI2
aI10
aI8
aI0
aI0
aI0
aI7
aI13
aI16
aI16
aI4
aI0
aI3
aa(lp232
I0
aI0
aI5
aI15
aI16
aI7
aI0
aI0
aI0
aI0
aI15
aI15
aI12
aI15
aI0
aI0
aI0
aI0
aI8
aI1
aI5
aI16
aI2
aI0
aI0
aI0
aI0
aI0
aI8
aI16
aI0
aI0
aI0
aI0
aI0
aI2
aI15
aI16
aI8
aI0
aI0
aI0
aI0
aI0
aI3
aI12
aI13
aI0
aI0
aI0
aI14
aI12
aI13
aI16
aI8
aI0
aI0
aI0
aI5
aI12
aI13
aI10
aI1
aI0
aI3
aa(lp233
I0
aI0
aI5
aI14
aI16
aI9
aI0
aI0
aI0
aI6
aI16
aI9
aI13
aI12
aI0
aI0
aI0
aI3
aI7
aI1
aI14
aI12
aI0
aI0
aI0
aI0
aI1
aI15
aI16
aI15
aI2
aI0
aI0
aI0
aI1
aI11
aI9
aI14
aI11
aI0
aI0
aI0
aI1
aI3
aI0
aI13
aI9
aI0
aI0
aI0
aI10
aI13
aI9
aI16
aI6
aI0
aI0
aI0
aI3
aI16
aI16
aI10
aI0
aI0
aI3
aa(lp234
I0
aI1
aI10
aI14
aI5
aI0
aI0
aI0
aI0
aI9
aI16
aI14
aI16
aI0
aI0
aI0
aI0
aI3
aI5
aI9
aI16
aI0
aI0
aI0
aI0
aI0
aI5
aI16
aI16
aI14
aI0
aI0
aI0
aI0
aI8
aI14
aI13
aI16
aI6
aI0
aI0
aI0
aI0
aI0
aI0
aI16
aI11
aI0
aI0
aI0
aI11
aI5
aI11
aI16
aI7
aI0
aI0
aI1
aI12
aI16
aI14
aI5
aI0
aI0
aI3
aa(lp235
I0
aI0
aI7
aI11
aI15
aI10
aI0
aI0
aI0
aI4
aI16
aI15
aI13
aI12
aI4
aI0
aI0
aI0
aI7
aI1
aI5
aI16
aI4
aI0
aI0
aI0
aI0
aI6
aI15
aI14
aI0
aI0
aI0
aI0
aI0
aI15
aI16
aI16
aI4
aI0
aI0
aI1
aI2
aI3
aI5
aI16
aI8
aI0
aI0
aI3
aI14
aI5
aI7
aI16
aI6
aI0
aI0
aI0
aI8
aI15
aI16
aI12
aI1
aI0
aI3
aa(lp236
I0
aI0
aI5
aI14
aI16
aI13
aI2
aI0
aI0
aI0
aI15
aI10
aI5
aI15
aI4
aI0
aI0
aI0
aI0
aI1
aI7
aI15
aI1
aI0
aI0
aI0
aI0
aI11
aI16
aI6
aI0
aI0
aI0
aI0
aI0
aI2
aI10
aI14
aI1
aI0
aI0
aI0
aI2
aI0
aI0
aI9
aI8
aI0
aI0
aI1
aI14
aI6
aI4
aI11
aI9
aI0
aI0
aI0
aI5
aI12
aI14
aI10
aI1
aI0
aI3
aa(lp237
I0
aI0
aI8
aI14
aI13
aI3
aI0
aI0
aI0
aI6
aI13
aI3
aI6
aI11
aI0
aI0
aI0
aI1
aI2
aI0
aI4
aI13
aI0
aI0
aI0
aI0
aI0
aI11
aI16
aI11
aI0
aI0
aI0
aI0
aI0
aI3
aI4
aI11
aI7
aI0
aI0
aI0
aI0
aI0
aI0
aI5
aI9
aI0
aI0
aI2
aI13
aI1
aI0
aI7
aI10
aI0
aI0
aI0
aI9
aI16
aI13
aI12
aI1
aI0
aI3
aa(lp238
I0
aI2
aI9
aI12
aI13
aI4
aI0
aI0
aI0
aI14
aI16
aI13
aI16
aI11
aI0
aI0
aI0
aI5
aI4
aI7
aI16
aI4
aI0
aI0
aI0
aI0
aI0
aI10
aI16
aI2
aI0
aI0
aI0
aI0
aI0
aI6
aI16
aI6
aI0
aI0
aI0
aI0
aI0
aI0
aI14
aI16
aI1
aI0
aI0
aI0
aI7
aI11
aI16
aI13
aI1
aI0
aI0
aI0
aI8
aI12
aI7
aI2
aI0
aI0
aI3
aa(lp239
I0
aI0
aI2
aI11
aI15
aI13
aI0
aI0
aI0
aI5
aI15
aI15
aI13
aI15
aI0
aI0
aI0
aI9
aI13
aI3
aI16
aI7
aI0
aI0
aI0
aI3
aI3
aI4
aI16
aI4
aI0
aI0
aI0
aI0
aI0
aI2
aI16
aI11
aI0
aI0
aI0
aI0
aI0
aI0
aI7
aI16
aI6
aI0
aI0
aI0
aI0
aI9
aI8
aI15
aI12
aI0
aI0
aI0
aI0
aI13
aI16
aI13
aI3
aI0
aI3
aa(lp240
I0
aI0
aI8
aI14
aI12
aI2
aI0
aI0
aI0
aI10
aI14
aI12
aI14
aI0
aI0
aI0
aI0
aI6
aI2
aI11
aI7
aI0
aI0
aI0
aI0
aI0
aI0
aI12
aI5
aI0
aI0
aI0
aI0
aI0
aI0
aI8
aI15
aI2
aI0
aI0
aI0
aI0
aI0
aI0
aI9
aI14
aI3
aI0
aI0
aI0
aI6
aI2
aI7
aI14
aI8
aI0
aI0
aI0
aI14
aI15
aI11
aI4
aI0
aI0
aI3
aa(lp241
I0
aI2
aI8
aI15
aI15
aI3
aI0
aI0
aI0
aI11
aI16
aI12
aI15
aI12
aI0
aI0
aI0
aI4
aI7
aI0
aI10
aI14
aI0
aI0
aI0
aI0
aI0
aI0
aI8
aI16
aI0
aI0
aI0
aI0
aI0
aI0
aI7
aI16
aI2
aI0
aI0
aI0
aI0
aI0
aI1
aI15
aI8
aI0
aI0
aI0
aI1
aI6
aI11
aI16
aI7
aI0
aI0
aI0
aI8
aI16
aI10
aI5
aI0
aI0
aI3
aa(lp242
I0
aI0
aI4
aI10
aI16
aI12
aI1
aI0
aI0
aI3
aI15
aI14
aI8
aI16
aI5
aI0
aI0
aI4
aI7
aI0
aI5
aI15
aI2
aI0
aI0
aI0
aI0
aI0
aI13
aI8
aI0
aI0
aI0
aI0
aI0
aI3
aI16
aI10
aI0
aI0
aI0
aI0
aI0
aI0
aI10
aI16
aI4
aI0
aI0
aI0
aI4
aI9
aI11
aI15
aI2
aI0
aI0
aI0
aI5
aI13
aI11
aI1
aI0
aI0
aI3
aa(lp243
I0
aI0
aI3
aI12
aI16
aI15
aI4
aI0
aI0
aI0
aI14
aI16
aI14
aI16
aI6
aI0
aI0
aI1
aI11
aI3
aI13
aI13
aI1
aI0
aI0
aI0
aI1
aI14
aI12
aI1
aI0
aI0
aI0
aI0
aI3
aI16
aI14
aI3
aI0
aI0
aI0
aI0
aI1
aI6
aI16
aI14
aI1
aI0
aI0
aI0
aI14
aI13
aI14
aI15
aI0
aI0
aI0
aI0
aI4
aI16
aI15
aI5
aI0
aI0
aI3
aa(lp244
I0
aI0
aI1
aI11
aI16
aI6
aI0
aI0
aI0
aI0
aI12
aI14
aI11
aI16
aI3
aI0
aI0
aI0
aI11
aI5
aI2
aI16
aI5
aI0
aI0
aI0
aI0
aI0
aI7
aI14
aI2
aI0
aI0
aI0
aI0
aI7
aI16
aI7
aI0
aI0
aI0
aI0
aI0
aI3
aI16
aI10
aI0
aI0
aI0
aI0
aI0
aI12
aI16
aI15
aI0
aI0
aI0
aI0
aI1
aI12
aI16
aI7
aI0
aI0
aI3
aa(lp245
I0
aI0
aI2
aI13
aI13
aI2
aI0
aI0
aI0
aI1
aI15
aI13
aI15
aI4
aI0
aI0
aI0
aI5
aI13
aI1
aI14
aI2
aI0
aI0
aI0
aI0
aI2
aI12
aI14
aI0
aI0
aI0
aI0
aI0
aI0
aI8
aI14
aI14
aI1
aI0
aI0
aI0
aI0
aI0
aI0
aI13
aI7
aI0
aI0
aI0
aI3
aI8
aI8
aI15
aI2
aI0
aI0
aI0
aI2
aI14
aI11
aI4
aI0
aI0
aI3
aa(lp246
I0
aI1
aI8
aI14
aI13
aI3
aI0
aI0
aI0
aI10
aI13
aI5
aI10
aI12
aI0
aI0
aI0
aI3
aI0
aI2
aI14
aI9
aI0
aI0
aI0
aI0
aI0
aI15
aI8
aI0
aI0
aI0
aI0
aI0
aI0
aI13
aI13
aI1
aI0
aI0
aI0
aI0
aI0
aI0
aI7
aI14
aI4
aI0
aI0
aI1
aI6
aI1
aI0
aI11
aI10
aI0
aI0
aI0
aI10
aI12
aI16
aI16
aI7
aI0
aI3
aa(lp247
I0
aI0
aI2
aI8
aI15
aI11
aI0
aI0
aI0
aI2
aI15
aI14
aI12
aI16
aI4
aI0
aI0
aI2
aI7
aI0
aI10
aI15
aI0
aI0
aI0
aI0
aI0
aI3
aI15
aI3
aI0
aI0
aI0
aI0
aI0
aI13
aI9
aI0
aI0
aI0
aI0
aI0
aI0
aI4
aI14
aI5
aI0
aI0
aI0
aI2
aI10
aI8
aI7
aI16
aI6
aI0
aI0
aI0
aI4
aI9
aI13
aI15
aI7
aI0
aI3
aa(lp248
I0
aI0
aI13
aI16
aI13
aI1
aI0
aI0
aI0
aI3
aI16
aI13
aI16
aI8
aI0
aI0
aI0
aI0
aI9
aI11
aI16
aI7
aI0
aI0
aI0
aI0
aI0
aI14
aI14
aI0
aI0
aI0
aI0
aI0
aI0
aI11
aI15
aI12
aI1
aI0
aI0
aI0
aI0
aI0
aI1
aI14
aI10
aI0
aI0
aI1
aI11
aI6
aI4
aI8
aI16
aI3
aI0
aI0
aI13
aI16
aI16
aI16
aI16
aI2
aI3
aa(lp249
I0
aI0
aI6
aI16
aI9
aI0
aI0
aI0
aI0
aI2
aI15
aI16
aI14
aI0
aI0
aI0
aI0
aI2
aI10
aI16
aI6
aI0
aI0
aI0
aI0
aI2
aI16
aI16
aI9
aI2
aI0
aI0
aI0
aI0
aI3
aI10
aI16
aI14
aI1
aI0
aI0
aI0
aI0
aI0
aI10
aI16
aI5
aI0
aI0
aI0
aI4
aI8
aI8
aI16
aI7
aI0
aI0
aI0
aI8
aI16
aI16
aI13
aI0
aI0
aI3
aa(lp250
I0
aI0
aI5
aI12
aI12
aI0
aI0
aI0
aI0
aI3
aI16
aI12
aI15
aI4
aI0
aI0
aI0
aI4
aI14
aI0
aI14
aI6
aI0
aI0
aI0
aI1
aI12
aI11
aI12
aI0
aI0
aI0
aI0
aI0
aI7
aI16
aI8
aI1
aI0
aI0
aI0
aI0
aI1
aI5
aI12
aI13
aI1
aI0
aI0
aI0
aI8
aI4
aI0
aI16
aI4
aI0
aI0
aI0
aI8
aI15
aI15
aI11
aI1
aI0
aI3
aa(lp251
I0
aI0
aI4
aI11
aI16
aI12
aI5
aI0
aI0
aI0
aI6
aI7
aI3
aI11
aI9
aI0
aI0
aI0
aI0
aI0
aI0
aI12
aI4
aI0
aI0
aI0
aI0
aI3
aI10
aI10
aI0
aI0
aI0
aI0
aI4
aI16
aI15
aI2
aI0
aI0
aI0
aI0
aI1
aI7
aI12
aI15
aI1
aI0
aI0
aI0
aI8
aI7
aI5
aI15
aI0
aI0
aI0
aI0
aI7
aI12
aI15
aI6
aI0
aI0
aI3
aa(lp252
I0
aI0
aI10
aI16
aI16
aI13
aI0
aI0
aI0
aI0
aI13
aI6
aI11
aI16
aI3
aI0
aI0
aI0
aI0
aI6
aI16
aI8
aI0
aI0
aI0
aI0
aI11
aI16
aI12
aI0
aI0
aI0
aI0
aI0
aI6
aI16
aI16
aI13
aI0
aI0
aI0
aI0
aI0
aI0
aI7
aI16
aI7
aI0
aI0
aI3
aI15
aI5
aI10
aI16
aI3
aI0
aI0
aI0
aI14
aI16
aI15
aI5
aI0
aI0
aI3
aa(lp253
I0
aI0
aI6
aI14
aI15
aI0
aI0
aI0
aI0
aI1
aI16
aI9
aI16
aI3
aI0
aI0
aI0
aI0
aI1
aI3
aI16
aI2
aI0
aI0
aI0
aI0
aI4
aI16
aI15
aI4
aI0
aI0
aI0
aI0
aI4
aI8
aI14
aI16
aI3
aI0
aI0
aI0
aI0
aI0
aI0
aI16
aI4
aI0
aI0
aI0
aI3
aI7
aI10
aI15
aI2
aI0
aI0
aI0
aI7
aI15
aI9
aI1
aI0
aI0
aI3
aa(lp254
I0
aI3
aI11
aI16
aI15
aI6
aI0
aI0
aI0
aI5
aI10
aI8
aI14
aI11
aI0
aI0
aI0
aI0
aI0
aI1
aI15
aI6
aI0
aI0
aI0
aI0
aI0
aI11
aI16
aI5
aI0
aI0
aI0
aI0
aI0
aI1
aI13
aI15
aI2
aI0
aI0
aI0
aI0
aI0
aI0
aI13
aI6
aI0
aI0
aI1
aI7
aI5
aI4
aI14
aI7
aI0
aI0
aI2
aI12
aI12
aI15
aI11
aI1
aI0
aI3
aa(lp255
I0
aI0
aI10
aI15
aI14
aI4
aI0
aI0
aI0
aI1
aI15
aI13
aI13
aI15
aI2
aI0
aI0
aI0
aI0
aI4
aI14
aI14
aI0
aI0
aI0
aI0
aI6
aI16
aI16
aI6
aI0
aI0
aI0
aI0
aI3
aI10
aI16
aI12
aI0
aI0
aI0
aI0
aI0
aI0
aI9
aI16
aI8
aI0
aI0
aI1
aI15
aI8
aI13
aI16
aI4
aI0
aI0
aI0
aI10
aI14
aI11
aI6
aI1
aI0
aI3
aa(lp256
I0
aI0
aI2
aI11
aI12
aI4
aI0
aI0
aI0
aI0
aI11
aI15
aI14
aI11
aI0
aI0
aI0
aI0
aI3
aI9
aI12
aI11
aI0
aI0
aI0
aI0
aI0
aI10
aI16
aI14
aI2
aI0
aI0
aI0
aI0
aI2
aI5
aI13
aI7
aI0
aI0
aI0
aI6
aI0
aI0
aI9
aI11
aI0
aI0
aI0
aI14
aI13
aI8
aI14
aI9
aI0
aI0
aI0
aI5
aI15
aI14
aI11
aI1
aI0
aI3
aa(lp257
I0
aI0
aI6
aI12
aI14
aI2
aI0
aI0
aI0
aI1
aI16
aI14
aI13
aI11
aI0
aI0
aI0
aI0
aI5
aI3
aI9
aI13
aI0
aI0
aI0
aI0
aI3
aI9
aI16
aI8
aI0
aI0
aI0
aI0
aI4
aI12
aI12
aI15
aI7
aI0
aI0
aI0
aI0
aI0
aI0
aI9
aI14
aI0
aI0
aI0
aI4
aI8
aI6
aI12
aI14
aI1
aI0
aI0
aI6
aI16
aI16
aI15
aI4
aI0
aI3
aa(lp258
I0
aI0
aI4
aI12
aI10
aI1
aI0
aI0
aI0
aI1
aI15
aI9
aI14
aI4
aI0
aI0
aI0
aI0
aI7
aI3
aI13
aI4
aI0
aI0
aI0
aI0
aI0
aI16
aI16
aI6
aI0
aI0
aI0
aI0
aI0
aI2
aI5
aI14
aI4
aI0
aI0
aI0
aI3
aI0
aI0
aI8
aI12
aI0
aI0
aI0
aI15
aI8
aI5
aI15
aI9
aI0
aI0
aI0
aI3
aI13
aI16
aI10
aI0
aI0
aI3
aa(lp259
I0
aI0
aI8
aI14
aI8
aI0
aI0
aI0
aI0
aI6
aI15
aI12
aI15
aI4
aI0
aI0
aI0
aI6
aI8
aI0
aI11
aI8
aI0
aI0
aI0
aI0
aI0
aI14
aI16
aI8
aI0
aI0
aI0
aI0
aI1
aI11
aI10
aI15
aI6
aI0
aI0
aI0
aI0
aI0
aI0
aI8
aI12
aI0
aI0
aI0
aI7
aI8
aI6
aI13
aI14
aI0
aI0
aI0
aI12
aI14
aI16
aI13
aI1
aI0
aI3
aa(lp260
I0
aI0
aI14
aI15
aI16
aI7
aI0
aI0
aI0
aI4
aI15
aI8
aI12
aI14
aI0
aI0
aI0
aI0
aI2
aI4
aI15
aI9
aI0
aI0
aI0
aI0
aI0
aI8
aI16
aI8
aI0
aI0
aI0
aI0
aI0
aI1
aI11
aI16
aI3
aI0
aI0
aI0
aI0
aI0
aI0
aI10
aI10
aI0
aI0
aI1
aI11
aI11
aI8
aI14
aI11
aI0
aI0
aI1
aI10
aI12
aI14
aI13
aI4
aI0
aI3
aa(lp261
I0
aI0
aI2
aI9
aI15
aI12
aI0
aI0
aI0
aI1
aI13
aI13
aI10
aI16
aI1
aI0
aI0
aI0
aI10
aI2
aI8
aI16
aI0
aI0
aI0
aI0
aI0
aI4
aI16
aI14
aI1
aI0
aI0
aI0
aI0
aI0
aI4
aI15
aI4
aI0
aI0
aI0
aI0
aI0
aI0
aI15
aI5
aI0
aI0
aI0
aI0
aI12
aI15
aI16
aI1
aI0
aI0
aI0
aI0
aI9
aI13
aI7
aI0
aI0
aI3
aa(lp262
I0
aI3
aI12
aI16
aI16
aI16
aI4
aI0
aI0
aI8
aI11
aI6
aI4
aI12
aI15
aI0
aI0
aI1
aI0
aI0
aI6
aI15
aI10
aI0
aI0
aI0
aI0
aI7
aI16
aI7
aI0
aI0
aI0
aI0
aI0
aI10
aI14
aI1
aI0
aI0
aI0
aI0
aI0
aI1
aI15
aI9
aI0
aI0
aI0
aI0
aI6
aI2
aI13
aI12
aI0
aI0
aI0
aI2
aI16
aI16
aI14
aI3
aI0
aI0
aI3
aa(lp263
I0
aI0
aI10
aI13
aI11
aI2
aI0
aI0
aI0
aI0
aI9
aI11
aI10
aI15
aI0
aI0
aI0
aI0
aI0
aI1
aI12
aI14
aI2
aI0
aI0
aI0
aI0
aI15
aI16
aI5
aI0
aI0
aI0
aI0
aI0
aI4
aI7
aI14
aI6
aI0
aI0
aI0
aI0
aI0
aI0
aI6
aI12
aI0
aI0
aI0
aI11
aI4
aI5
aI14
aI10
aI0
aI0
aI0
aI13
aI16
aI16
aI10
aI0
aI0
aI3
aa(lp264
I0
aI2
aI16
aI16
aI16
aI7
aI0
aI0
aI0
aI0
aI7
aI8
aI11
aI16
aI3
aI0
aI0
aI0
aI0
aI2
aI12
aI16
aI4
aI0
aI0
aI0
aI1
aI16
aI16
aI6
aI0
aI0
aI0
aI0
aI2
aI12
aI16
aI10
aI0
aI0
aI0
aI0
aI0
aI0
aI4
aI16
aI4
aI0
aI0
aI0
aI10
aI8
aI11
aI16
aI7
aI0
aI0
aI1
aI14
aI16
aI16
aI12
aI1
aI0
aI3
aa(lp265
I0
aI1
aI10
aI13
aI13
aI12
aI1
aI0
aI0
aI6
aI13
aI4
aI4
aI13
aI8
aI0
aI0
aI0
aI1
aI1
aI7
aI16
aI3
aI0
aI0
aI0
aI0
aI15
aI13
aI4
aI0
aI0
aI0
aI0
aI0
aI8
aI15
aI3
aI0
aI0
aI0
aI0
aI0
aI0
aI10
aI13
aI1
aI0
aI0
aI0
aI0
aI1
aI9
aI16
aI2
aI0
aI0
aI1
aI13
aI16
aI12
aI7
aI0
aI0
aI3
aa(lp266
I0
aI3
aI11
aI16
aI16
aI12
aI0
aI0
aI0
aI5
aI9
aI10
aI16
aI16
aI3
aI0
aI0
aI0
aI0
aI8
aI16
aI7
aI0
aI0
aI0
aI0
aI0
aI12
aI14
aI0
aI0
aI0
aI0
aI0
aI0
aI4
aI16
aI9
aI0
aI0
aI0
aI0
aI0
aI0
aI5
aI16
aI6
aI0
aI0
aI0
aI6
aI8
aI12
aI16
aI7
aI0
aI0
aI1
aI13
aI11
aI8
aI3
aI0
aI0
aI3
aa(lp267
I0
aI2
aI10
aI15
aI9
aI1
aI0
aI0
aI0
aI10
aI13
aI9
aI16
aI4
aI0
aI0
aI0
aI2
aI0
aI5
aI16
aI0
aI0
aI0
aI0
aI0
aI0
aI12
aI16
aI9
aI0
aI0
aI0
aI0
aI0
aI3
aI7
aI16
aI7
aI0
aI0
aI0
aI0
aI0
aI0
aI11
aI9
aI0
aI0
aI0
aI12
aI9
aI9
aI16
aI8
aI0
aI0
aI0
aI13
aI12
aI12
aI6
aI0
aI0
aI3
aa(lp268
I0
aI0
aI9
aI14
aI13
aI6
aI0
aI0
aI0
aI4
aI12
aI5
aI8
aI16
aI0
aI0
aI0
aI0
aI0
aI0
aI4
aI13
aI0
aI0
aI0
aI0
aI0
aI3
aI15
aI7
aI0
aI0
aI0
aI0
aI0
aI10
aI16
aI15
aI2
aI0
aI0
aI0
aI0
aI0
aI0
aI13
aI7
aI0
aI0
aI0
aI12
aI4
aI5
aI13
aI2
aI0
aI0
aI0
aI13
aI16
aI14
aI6
aI0
aI0
aI3
aa(lp269
I0
aI1
aI10
aI16
aI6
aI0
aI0
aI0
aI0
aI4
aI12
aI8
aI12
aI0
aI0
aI0
aI0
aI1
aI0
aI2
aI11
aI0
aI0
aI0
aI0
aI0
aI0
aI9
aI16
aI9
aI0
aI0
aI0
aI0
aI0
aI5
aI8
aI16
aI5
aI0
aI0
aI0
aI0
aI0
aI0
aI8
aI9
aI0
aI0
aI2
aI8
aI8
aI7
aI11
aI9
aI0
aI0
aI1
aI13
aI16
aI16
aI10
aI1
aI0
aI3
aa(lp270
I0
aI0
aI10
aI16
aI9
aI0
aI0
aI0
aI0
aI8
aI14
aI8
aI16
aI0
aI0
aI0
aI0
aI10
aI2
aI7
aI13
aI0
aI0
aI0
aI0
aI0
aI0
aI10
aI16
aI9
aI0
aI0
aI0
aI0
aI0
aI2
aI9
aI16
aI5
aI0
aI0
aI0
aI0
aI0
aI0
aI9
aI11
aI0
aI0
aI1
aI11
aI5
aI7
aI16
aI6
aI0
aI0
aI0
aI11
aI15
aI14
aI7
aI0
aI0
aI3
aa(lp271
I0
aI3
aI8
aI12
aI13
aI3
aI0
aI0
aI0
aI5
aI11
aI8
aI12
aI10
aI0
aI0
aI0
aI0
aI0
aI0
aI13
aI7
aI0
aI0
aI0
aI0
aI5
aI14
aI16
aI13
aI0
aI0
aI0
aI0
aI7
aI13
aI7
aI14
aI8
aI0
aI0
aI0
aI0
aI0
aI2
aI16
aI7
aI0
aI0
aI1
aI6
aI11
aI16
aI7
aI0
aI0
aI0
aI3
aI13
aI11
aI3
aI0
aI0
aI0
aI3
aa(lp272
I0
aI2
aI12
aI15
aI6
aI0
aI0
aI0
aI0
aI6
aI13
aI12
aI16
aI5
aI0
aI0
aI0
aI0
aI3
aI9
aI16
aI5
aI0
aI0
aI0
aI0
aI7
aI16
aI16
aI12
aI0
aI0
aI0
aI0
aI0
aI4
aI8
aI16
aI5
aI0
aI0
aI0
aI0
aI0
aI0
aI13
aI8
aI0
aI0
aI2
aI13
aI8
aI14
aI15
aI3
aI0
aI0
aI2
aI15
aI15
aI10
aI1
aI0
aI0
aI3
aa(lp273
I0
aI0
aI4
aI15
aI16
aI5
aI0
aI0
aI0
aI4
aI16
aI10
aI10
aI15
aI0
aI0
aI0
aI10
aI16
aI7
aI4
aI15
aI0
aI0
aI0
aI1
aI4
aI3
aI13
aI9
aI0
aI0
aI0
aI0
aI0
aI9
aI16
aI16
aI4
aI0
aI0
aI0
aI0
aI1
aI0
aI11
aI11
aI0
aI0
aI0
aI2
aI12
aI4
aI13
aI9
aI0
aI0
aI0
aI4
aI16
aI16
aI12
aI1
aI0
aI3
aa(lp274
I0
aI0
aI9
aI12
aI16
aI7
aI0
aI0
aI0
aI10
aI11
aI2
aI0
aI16
aI0
aI0
aI0
aI3
aI2
aI0
aI10
aI8
aI0
aI0
aI0
aI0
aI0
aI7
aI15
aI5
aI0
aI0
aI0
aI0
aI0
aI7
aI9
aI14
aI2
aI0
aI0
aI0
aI0
aI0
aI0
aI8
aI10
aI0
aI0
aI0
aI2
aI2
aI4
aI14
aI5
aI0
aI0
aI0
aI14
aI16
aI14
aI2
aI0
aI0
aI3
aa(lp275
I0
aI2
aI16
aI16
aI12
aI12
aI11
aI0
aI0
aI0
aI3
aI9
aI13
aI16
aI14
aI2
aI0
aI0
aI0
aI1
aI13
aI16
aI4
aI0
aI0
aI0
aI0
aI14
aI15
aI3
aI0
aI0
aI0
aI0
aI0
aI9
aI16
aI6
aI0
aI0
aI0
aI0
aI0
aI1
aI16
aI12
aI0
aI0
aI0
aI0
aI3
aI9
aI16
aI10
aI0
aI0
aI0
aI4
aI16
aI16
aI7
aI0
aI0
aI0
aI3
aa(lp276
I0
aI0
aI7
aI9
aI13
aI14
aI4
aI0
aI0
aI0
aI9
aI7
aI6
aI16
aI8
aI0
aI0
aI0
aI0
aI1
aI13
aI10
aI0
aI0
aI0
aI0
aI0
aI14
aI14
aI1
aI0
aI0
aI0
aI0
aI0
aI10
aI16
aI4
aI0
aI0
aI0
aI0
aI0
aI2
aI11
aI14
aI0
aI0
aI0
aI1
aI10
aI9
aI8
aI16
aI3
aI0
aI0
aI1
aI9
aI13
aI12
aI8
aI0
aI0
aI3
aa(lp277
I0
aI0
aI8
aI13
aI16
aI14
aI0
aI0
aI0
aI3
aI16
aI10
aI16
aI13
aI0
aI0
aI0
aI0
aI2
aI11
aI16
aI6
aI0
aI0
aI0
aI0
aI2
aI16
aI15
aI8
aI0
aI0
aI0
aI0
aI1
aI13
aI16
aI16
aI7
aI0
aI0
aI0
aI0
aI1
aI8
aI16
aI7
aI0
aI0
aI0
aI5
aI16
aI16
aI11
aI0
aI0
aI0
aI0
aI9
aI14
aI5
aI0
aI0
aI0
aI3
aa(lp278
I0
aI0
aI8
aI12
aI14
aI3
aI0
aI0
aI0
aI10
aI16
aI14
aI15
aI13
aI0
aI0
aI0
aI7
aI5
aI0
aI9
aI15
aI0
aI0
aI0
aI0
aI0
aI0
aI12
aI11
aI0
aI0
aI0
aI0
aI0
aI0
aI9
aI16
aI2
aI0
aI0
aI0
aI0
aI0
aI0
aI14
aI9
aI0
aI0
aI0
aI11
aI12
aI14
aI16
aI5
aI0
aI0
aI0
aI8
aI14
aI9
aI4
aI0
aI0
aI3
aa(lp279
I0
aI0
aI3
aI10
aI14
aI14
aI3
aI0
aI0
aI0
aI15
aI6
aI9
aI16
aI4
aI0
aI0
aI0
aI1
aI5
aI14
aI6
aI0
aI0
aI0
aI0
aI7
aI16
aI9
aI1
aI0
aI0
aI0
aI0
aI2
aI9
aI13
aI15
aI1
aI0
aI0
aI0
aI0
aI0
aI4
aI16
aI2
aI0
aI0
aI0
aI0
aI7
aI15
aI6
aI0
aI0
aI0
aI0
aI0
aI14
aI7
aI0
aI0
aI0
aI3
aa(lp280
I0
aI0
aI10
aI15
aI16
aI6
aI0
aI0
aI0
aI7
aI16
aI14
aI16
aI11
aI0
aI0
aI0
aI6
aI5
aI11
aI16
aI3
aI0
aI0
aI0
aI0
aI0
aI12
aI16
aI6
aI0
aI0
aI0
aI0
aI0
aI1
aI13
aI16
aI5
aI0
aI0
aI0
aI0
aI0
aI2
aI16
aI9
aI0
aI0
aI0
aI3
aI8
aI13
aI16
aI7
aI0
aI0
aI0
aI12
aI16
aI15
aI4
aI0
aI0
aI3
aa(lp281
I0
aI0
aI8
aI16
aI16
aI12
aI0
aI0
aI0
aI4
aI16
aI16
aI16
aI15
aI2
aI0
aI0
aI2
aI11
aI16
aI16
aI11
aI0
aI0
aI0
aI0
aI0
aI15
aI16
aI7
aI0
aI0
aI0
aI0
aI0
aI0
aI11
aI16
aI2
aI0
aI0
aI0
aI7
aI0
aI0
aI15
aI5
aI0
aI0
aI2
aI16
aI7
aI7
aI15
aI7
aI0
aI0
aI0
aI8
aI14
aI12
aI5
aI0
aI0
aI3
aa(lp282
I0
aI2
aI13
aI16
aI16
aI11
aI0
aI0
aI0
aI7
aI13
aI4
aI11
aI14
aI0
aI0
aI0
aI0
aI1
aI9
aI16
aI7
aI0
aI0
aI0
aI0
aI7
aI16
aI14
aI1
aI0
aI0
aI0
aI0
aI0
aI9
aI15
aI13
aI1
aI0
aI0
aI0
aI0
aI0
aI3
aI16
aI5
aI0
aI0
aI0
aI6
aI0
aI5
aI15
aI7
aI0
aI0
aI0
aI15
aI16
aI16
aI10
aI1
aI0
aI3
aa(lp283
I0
aI1
aI11
aI16
aI16
aI15
aI1
aI0
aI0
aI3
aI15
aI7
aI10
aI16
aI3
aI0
aI0
aI0
aI0
aI4
aI16
aI8
aI0
aI0
aI0
aI0
aI0
aI5
aI15
aI10
aI0
aI0
aI0
aI0
aI0
aI0
aI3
aI16
aI8
aI0
aI0
aI0
aI0
aI0
aI0
aI11
aI13
aI0
aI0
aI4
aI11
aI1
aI1
aI11
aI14
aI0
aI0
aI1
aI13
aI16
aI16
aI15
aI6
aI0
aI3
aa(lp284
I0
aI1
aI12
aI16
aI15
aI2
aI0
aI0
aI0
aI6
aI16
aI8
aI14
aI10
aI0
aI0
aI0
aI1
aI8
aI3
aI15
aI7
aI0
aI0
aI0
aI0
aI1
aI16
aI16
aI5
aI0
aI0
aI0
aI0
aI0
aI3
aI13
aI16
aI4
aI0
aI0
aI0
aI6
aI0
aI2
aI14
aI8
aI0
aI0
aI1
aI16
aI7
aI7
aI15
aI7
aI0
aI0
aI0
aI12
aI16
aI16
aI10
aI1
aI0
aI3
aa(lp285
I0
aI0
aI5
aI14
aI15
aI5
aI0
aI0
aI0
aI2
aI16
aI9
aI9
aI15
aI2
aI0
aI0
aI2
aI10
aI0
aI6
aI16
aI3
aI0
aI0
aI0
aI2
aI14
aI16
aI7
aI0
aI0
aI0
aI0
aI0
aI11
aI16
aI14
aI1
aI0
aI0
aI0
aI6
aI3
aI6
aI16
aI1
aI0
aI0
aI0
aI13
aI11
aI10
aI15
aI0
aI0
aI0
aI0
aI9
aI16
aI16
aI7
aI0
aI0
aI3
aa(lp286
I0
aI2
aI9
aI15
aI12
aI1
aI0
aI0
aI0
aI6
aI16
aI10
aI14
aI6
aI0
aI0
aI0
aI1
aI1
aI6
aI16
aI4
aI0
aI0
aI0
aI3
aI13
aI16
aI16
aI8
aI0
aI0
aI0
aI3
aI12
aI7
aI7
aI16
aI4
aI0
aI0
aI0
aI0
aI0
aI0
aI13
aI9
aI0
aI0
aI3
aI15
aI6
aI12
aI16
aI4
aI0
aI0
aI0
aI10
aI16
aI14
aI7
aI1
aI0
aI3
aa(lp287
I0
aI0
aI7
aI15
aI16
aI12
aI0
aI0
aI0
aI0
aI9
aI6
aI3
aI15
aI2
aI0
aI0
aI0
aI0
aI4
aI13
aI9
aI0
aI0
aI0
aI0
aI9
aI16
aI16
aI6
aI0
aI0
aI0
aI0
aI5
aI5
aI6
aI15
aI4
aI0
aI0
aI0
aI8
aI0
aI0
aI4
aI12
aI0
aI0
aI1
aI13
aI1
aI3
aI12
aI8
aI0
aI0
aI0
aI8
aI16
aI15
aI10
aI0
aI0
aI3
aa(lp288
I0
aI1
aI8
aI14
aI16
aI12
aI0
aI0
aI0
aI1
aI12
aI9
aI11
aI16
aI0
aI0
aI0
aI0
aI0
aI9
aI15
aI5
aI0
aI0
aI0
aI2
aI14
aI16
aI7
aI0
aI0
aI0
aI0
aI1
aI11
aI13
aI16
aI9
aI0
aI0
aI0
aI0
aI0
aI0
aI2
aI16
aI4
aI0
aI0
aI0
aI11
aI8
aI14
aI13
aI0
aI0
aI0
aI0
aI11
aI14
aI11
aI1
aI0
aI0
aI3
aa(lp289
I0
aI2
aI13
aI16
aI14
aI3
aI0
aI0
aI0
aI2
aI8
aI11
aI16
aI8
aI0
aI0
aI0
aI0
aI3
aI16
aI12
aI1
aI0
aI0
aI0
aI0
aI1
aI11
aI14
aI2
aI0
aI0
aI0
aI0
aI0
aI0
aI7
aI13
aI0
aI0
aI0
aI0
aI0
aI0
aI0
aI11
aI7
aI0
aI0
aI7
aI11
aI4
aI4
aI13
aI7
aI0
aI0
aI2
aI11
aI16
aI12
aI10
aI0
aI0
aI3
aa(lp290
I0
aI1
aI9
aI14
aI14
aI3
aI0
aI0
aI0
aI2
aI12
aI10
aI12
aI11
aI0
aI0
aI0
aI0
aI0
aI3
aI14
aI11
aI0
aI0
aI0
aI0
aI11
aI16
aI16
aI7
aI0
aI0
aI0
aI0
aI10
aI7
aI11
aI16
aI5
aI0
aI0
aI0
aI0
aI0
aI0
aI5
aI12
aI0
aI0
aI0
aI8
aI5
aI6
aI12
aI12
aI0
aI0
aI0
aI12
aI16
aI15
aI10
aI3
aI0
aI3
aa(lp291
I0
aI0
aI3
aI10
aI14
aI7
aI0
aI0
aI0
aI4
aI16
aI12
aI14
aI12
aI0
aI0
aI0
aI0
aI7
aI0
aI11
aI9
aI0
aI0
aI0
aI0
aI0
aI11
aI16
aI3
aI0
aI0
aI0
aI0
aI0
aI12
aI16
aI16
aI5
aI0
aI0
aI0
aI0
aI0
aI0
aI14
aI8
aI0
aI0
aI0
aI1
aI8
aI11
aI15
aI3
aI0
aI0
aI0
aI5
aI13
aI10
aI2
aI0
aI0
aI3
aa(lp292
I0
aI2
aI10
aI13
aI10
aI1
aI0
aI0
aI0
aI11
aI12
aI10
aI15
aI9
aI0
aI0
aI0
aI0
aI0
aI0
aI12
aI9
aI0
aI0
aI0
aI0
aI3
aI11
aI16
aI6
aI0
aI0
aI0
aI0
aI12
aI16
aI16
aI16
aI4
aI0
aI0
aI0
aI0
aI0
aI0
aI13
aI9
aI0
aI0
aI0
aI1
aI7
aI9
aI16
aI5
aI0
aI0
aI0
aI13
aI15
aI11
aI3
aI0
aI0
aI3
aa(lp293
I0
aI0
aI4
aI11
aI14
aI6
aI0
aI0
aI0
aI4
aI14
aI7
aI6
aI15
aI0
aI0
aI0
aI4
aI5
aI0
aI5
aI11
aI0
aI0
aI0
aI0
aI0
aI7
aI15
aI11
aI0
aI0
aI0
aI0
aI0
aI11
aI10
aI15
aI4
aI0
aI0
aI0
aI0
aI0
aI0
aI10
aI8
aI0
aI0
aI0
aI1
aI4
aI7
aI15
aI1
aI0
aI0
aI0
aI3
aI16
aI11
aI2
aI0
aI0
aI3
aa(lp294
I0
aI2
aI9
aI13
aI16
aI12
aI2
aI0
aI0
aI5
aI16
aI10
aI7
aI16
aI5
aI0
aI0
aI0
aI0
aI0
aI11
aI15
aI1
aI0
aI0
aI0
aI0
aI9
aI16
aI11
aI1
aI0
aI0
aI0
aI0
aI1
aI10
aI15
aI8
aI0
aI0
aI0
aI0
aI0
aI3
aI15
aI8
aI0
aI0
aI0
aI2
aI9
aI16
aI11
aI1
aI0
aI0
aI1
aI12
aI11
aI3
aI0
aI0
aI0
aI3
aa(lp295
I0
aI1
aI9
aI13
aI15
aI3
aI0
aI0
aI0
aI8
aI14
aI8
aI12
aI16
aI0
aI0
aI0
aI1
aI1
aI0
aI10
aI14
aI0
aI0
aI0
aI0
aI0
aI6
aI15
aI7
aI0
aI0
aI0
aI0
aI10
aI16
aI16
aI10
aI2
aI0
aI0
aI0
aI5
aI8
aI8
aI14
aI8
aI0
aI0
aI1
aI6
aI4
aI7
aI15
aI6
aI0
aI0
aI1
aI11
aI15
aI12
aI4
aI0
aI0
aI3
aa(lp296
I0
aI0
aI9
aI11
aI12
aI12
aI1
aI0
aI0
aI0
aI11
aI12
aI13
aI16
aI4
aI0
aI0
aI0
aI0
aI0
aI12
aI10
aI0
aI0
aI0
aI0
aI2
aI11
aI14
aI2
aI0
aI0
aI0
aI0
aI9
aI16
aI5
aI0
aI0
aI0
aI0
aI0
aI6
aI15
aI16
aI14
aI2
aI0
aI0
aI0
aI3
aI6
aI14
aI16
aI1
aI0
aI0
aI0
aI11
aI16
aI13
aI5
aI0
aI0
aI3
aa(lp297
I0
aI2
aI14
aI16
aI13
aI7
aI0
aI0
aI0
aI3
aI12
aI8
aI13
aI16
aI0
aI0
aI0
aI0
aI0
aI5
aI14
aI11
aI0
aI0
aI0
aI2
aI12
aI16
aI10
aI1
aI0
aI0
aI0
aI3
aI16
aI15
aI9
aI1
aI0
aI0
aI0
aI0
aI3
aI11
aI15
aI15
aI1
aI0
aI0
aI3
aI6
aI4
aI5
aI16
aI8
aI0
aI0
aI3
aI13
aI16
aI14
aI12
aI2
aI0
aI3
aa(lp298
I0
aI0
aI3
aI10
aI14
aI15
aI2
aI0
aI0
aI1
aI15
aI11
aI8
aI16
aI4
aI0
aI0
aI0
aI5
aI0
aI8
aI12
aI0
aI0
aI0
aI0
aI0
aI0
aI15
aI2
aI0
aI0
aI0
aI0
aI0
aI0
aI16
aI7
aI0
aI0
aI0
aI0
aI0
aI0
aI9
aI16
aI5
aI0
aI0
aI0
aI1
aI4
aI6
aI16
aI2
aI0
aI0
aI0
aI2
aI16
aI15
aI7
aI0
aI0
aI3
aa(lp299
I0
aI1
aI10
aI5
aI0
aI0
aI0
aI0
aI0
aI2
aI16
aI16
aI12
aI1
aI0
aI0
aI0
aI0
aI10
aI5
aI11
aI6
aI0
aI0
aI0
aI0
aI0
aI1
aI12
aI7
aI0
aI0
aI0
aI0
aI6
aI16
aI16
aI6
aI0
aI0
aI0
aI0
aI3
aI8
aI10
aI15
aI8
aI0
aI0
aI0
aI3
aI4
aI7
aI14
aI15
aI0
aI0
aI0
aI6
aI15
aI15
aI11
aI4
aI0
aI3
aa(lp300
I0
aI0
aI5
aI12
aI10
aI4
aI0
aI0
aI0
aI0
aI15
aI13
aI14
aI12
aI0
aI0
aI0
aI0
aI2
aI0
aI12
aI7
aI0
aI0
aI0
aI0
aI2
aI13
aI15
aI2
aI0
aI0
aI0
aI0
aI2
aI13
aI16
aI13
aI0
aI0
aI0
aI0
aI0
aI0
aI3
aI16
aI3
aI0
aI0
aI0
aI12
aI5
aI8
aI15
aI1
aI0
aI0
aI0
aI7
aI13
aI10
aI4
aI0
aI0
aI3
aa(lp301
I0
aI1
aI13
aI16
aI10
aI3
aI0
aI0
aI0
aI2
aI13
aI8
aI13
aI15
aI0
aI0
aI0
aI0
aI1
aI8
aI11
aI14
aI2
aI0
aI0
aI0
aI0
aI16
aI16
aI7
aI0
aI0
aI0
aI0
aI0
aI0
aI9
aI16
aI1
aI0
aI0
aI0
aI1
aI0
aI0
aI14
aI7
aI0
aI0
aI5
aI12
aI4
aI7
aI16
aI3
aI0
aI0
aI1
aI11
aI14
aI12
aI5
aI0
aI0
aI3
aa(lp302
I0
aI0
aI9
aI14
aI10
aI4
aI0
aI0
aI0
aI1
aI15
aI12
aI14
aI16
aI2
aI0
aI0
aI0
aI1
aI0
aI0
aI15
aI4
aI0
aI0
aI0
aI0
aI14
aI16
aI8
aI0
aI0
aI0
aI0
aI0
aI6
aI13
aI14
aI1
aI0
aI0
aI0
aI0
aI0
aI1
aI16
aI5
aI0
aI0
aI0
aI5
aI4
aI6
aI15
aI4
aI0
aI0
aI0
aI12
aI15
aI12
aI6
aI0
aI0
aI3
aa(lp303
I0
aI0
aI5
aI14
aI16
aI10
aI0
aI0
aI0
aI0
aI15
aI15
aI14
aI13
aI0
aI0
aI0
aI0
aI4
aI3
aI15
aI8
aI0
aI0
aI0
aI0
aI1
aI16
aI16
aI15
aI2
aI0
aI0
aI0
aI1
aI7
aI6
aI16
aI6
aI0
aI0
aI0
aI0
aI1
aI0
aI14
aI6
aI0
aI0
aI0
aI2
aI15
aI12
aI14
aI1
aI0
aI0
aI0
aI7
aI16
aI12
aI1
aI0
aI0
aI3
aa(lp304
I0
aI0
aI5
aI11
aI15
aI16
aI5
aI0
aI0
aI6
aI16
aI10
aI5
aI16
aI8
aI0
aI0
aI0
aI2
aI1
aI12
aI16
aI1
aI0
aI0
aI0
aI1
aI14
aI15
aI2
aI0
aI0
aI0
aI0
aI2
aI9
aI16
aI10
aI0
aI0
aI0
aI0
aI2
aI0
aI7
aI16
aI3
aI0
aI0
aI0
aI13
aI10
aI5
aI16
aI7
aI0
aI0
aI0
aI7
aI13
aI14
aI15
aI2
aI0
aI3
aa(lp305
I0
aI0
aI6
aI12
aI16
aI16
aI9
aI0
aI0
aI0
aI12
aI5
aI1
aI14
aI10
aI0
aI0
aI0
aI0
aI2
aI12
aI12
aI0
aI0
aI0
aI0
aI4
aI15
aI14
aI1
aI0
aI0
aI0
aI0
aI4
aI13
aI16
aI8
aI0
aI0
aI0
aI0
aI0
aI0
aI2
aI16
aI1
aI0
aI0
aI0
aI4
aI8
aI12
aI13
aI0
aI0
aI0
aI0
aI7
aI14
aI7
aI1
aI0
aI0
aI3
aa(lp306
I0
aI0
aI15
aI16
aI16
aI11
aI3
aI0
aI0
aI0
aI11
aI7
aI7
aI13
aI13
aI0
aI0
aI0
aI0
aI0
aI5
aI15
aI6
aI0
aI0
aI0
aI2
aI11
aI16
aI7
aI0
aI0
aI0
aI0
aI3
aI16
aI16
aI13
aI1
aI0
aI0
aI0
aI0
aI0
aI8
aI16
aI2
aI0
aI0
aI0
aI14
aI12
aI15
aI11
aI0
aI0
aI0
aI0
aI11
aI9
aI6
aI0
aI0
aI0
aI3
aa(lp307
I0
aI0
aI2
aI7
aI14
aI12
aI1
aI0
aI0
aI2
aI14
aI15
aI10
aI16
aI7
aI0
aI0
aI4
aI9
aI0
aI5
aI16
aI3
aI0
aI0
aI0
aI0
aI2
aI16
aI13
aI0
aI0
aI0
aI0
aI0
aI2
aI15
aI11
aI0
aI0
aI0
aI0
aI0
aI0
aI6
aI16
aI4
aI0
aI0
aI0
aI0
aI5
aI16
aI13
aI0
aI0
aI0
aI0
aI0
aI9
aI11
aI2
aI0
aI0
aI3
aa(lp308
I0
aI0
aI1
aI9
aI15
aI7
aI1
aI0
aI0
aI4
aI13
aI15
aI13
aI16
aI4
aI0
aI0
aI11
aI13
aI1
aI11
aI14
aI0
aI0
aI0
aI0
aI0
aI0
aI16
aI12
aI0
aI0
aI0
aI0
aI0
aI0
aI14
aI12
aI0
aI0
aI0
aI0
aI0
aI0
aI9
aI14
aI1
aI0
aI0
aI0
aI0
aI3
aI13
aI15
aI0
aI0
aI0
aI0
aI0
aI12
aI13
aI3
aI0
aI0
aI3
aa(lp309
I0
aI1
aI8
aI12
aI11
aI4
aI0
aI0
aI0
aI12
aI16
aI11
aI15
aI14
aI0
aI0
aI0
aI3
aI3
aI3
aI16
aI11
aI0
aI0
aI0
aI0
aI1
aI13
aI16
aI1
aI0
aI0
aI0
aI0
aI0
aI5
aI16
aI7
aI0
aI0
aI0
aI0
aI0
aI0
aI12
aI14
aI0
aI0
aI0
aI0
aI0
aI7
aI16
aI9
aI0
aI0
aI0
aI0
aI10
aI13
aI7
aI0
aI0
aI0
aI3
aa(lp310
I0
aI1
aI11
aI12
aI0
aI0
aI0
aI0
aI0
aI7
aI14
aI15
aI6
aI0
aI0
aI0
aI0
aI7
aI3
aI12
aI10
aI0
aI0
aI0
aI0
aI0
aI0
aI15
aI14
aI5
aI0
aI0
aI0
aI0
aI0
aI8
aI10
aI16
aI2
aI0
aI0
aI0
aI0
aI0
aI0
aI12
aI8
aI0
aI0
aI0
aI9
aI8
aI8
aI15
aI10
aI0
aI0
aI0
aI13
aI16
aI14
aI8
aI1
aI0
aI3
aa(lp311
I0
aI0
aI7
aI15
aI4
aI0
aI0
aI0
aI0
aI0
aI14
aI16
aI12
aI0
aI0
aI0
aI0
aI0
aI12
aI6
aI16
aI0
aI0
aI0
aI0
aI0
aI0
aI10
aI16
aI2
aI0
aI0
aI0
aI0
aI0
aI8
aI14
aI15
aI3
aI0
aI0
aI0
aI0
aI0
aI0
aI9
aI11
aI0
aI0
aI0
aI5
aI9
aI9
aI15
aI11
aI0
aI0
aI0
aI9
aI14
aI12
aI9
aI1
aI0
aI3
aa(lp312
I0
aI1
aI11
aI14
aI6
aI0
aI0
aI0
aI0
aI7
aI12
aI5
aI15
aI0
aI0
aI0
aI0
aI6
aI6
aI1
aI16
aI0
aI0
aI0
aI0
aI0
aI0
aI5
aI16
aI0
aI0
aI0
aI0
aI0
aI0
aI13
aI16
aI12
aI0
aI0
aI0
aI0
aI0
aI0
aI3
aI14
aI6
aI0
aI0
aI0
aI5
aI7
aI6
aI14
aI8
aI0
aI0
aI0
aI14
aI16
aI16
aI11
aI1
aI0
aI3
aa(lp313
I0
aI0
aI9
aI12
aI11
aI0
aI0
aI0
aI0
aI7
aI13
aI4
aI14
aI2
aI0
aI0
aI0
aI2
aI6
aI0
aI14
aI4
aI0
aI0
aI0
aI0
aI0
aI8
aI14
aI0
aI0
aI0
aI0
aI0
aI0
aI10
aI14
aI13
aI1
aI0
aI0
aI0
aI0
aI0
aI1
aI14
aI5
aI0
aI0
aI0
aI8
aI5
aI10
aI14
aI2
aI0
aI0
aI1
aI15
aI16
aI11
aI1
aI0
aI0
aI3
aa(lp314
I0
aI0
aI13
aI16
aI16
aI5
aI0
aI0
aI0
aI1
aI10
aI8
aI16
aI6
aI0
aI0
aI0
aI0
aI0
aI10
aI14
aI0
aI0
aI0
aI0
aI0
aI7
aI16
aI6
aI0
aI0
aI0
aI0
aI0
aI3
aI13
aI16
aI6
aI0
aI0
aI0
aI0
aI0
aI0
aI10
aI15
aI1
aI0
aI0
aI0
aI2
aI5
aI7
aI16
aI7
aI0
aI0
aI0
aI15
aI16
aI16
aI14
aI2
aI0
aI3
aa(lp315
I0
aI0
aI10
aI16
aI16
aI6
aI0
aI0
aI0
aI3
aI13
aI6
aI16
aI4
aI0
aI0
aI0
aI0
aI0
aI10
aI12
aI0
aI0
aI0
aI0
aI0
aI6
aI16
aI5
aI0
aI0
aI0
aI0
aI0
aI1
aI12
aI15
aI5
aI0
aI0
aI0
aI0
aI0
aI0
aI10
aI15
aI3
aI0
aI0
aI0
aI0
aI2
aI7
aI16
aI5
aI0
aI0
aI1
aI13
aI16
aI14
aI10
aI0
aI0
aI3
aa(lp316
I0
aI1
aI12
aI16
aI14
aI5
aI0
aI0
aI0
aI3
aI13
aI9
aI16
aI12
aI0
aI0
aI0
aI0
aI1
aI11
aI16
aI6
aI0
aI0
aI0
aI0
aI8
aI16
aI9
aI0
aI0
aI0
aI0
aI0
aI3
aI15
aI13
aI0
aI0
aI0
aI0
aI0
aI0
aI2
aI15
aI9
aI0
aI0
aI0
aI0
aI3
aI8
aI12
aI16
aI3
aI0
aI0
aI0
aI14
aI16
aI16
aI16
aI7
aI0
aI3
aa(lp317
I0
aI0
aI10
aI14
aI12
aI1
aI0
aI0
aI0
aI4
aI11
aI4
aI10
aI9
aI0
aI0
aI0
aI1
aI3
aI0
aI7
aI11
aI0
aI0
aI0
aI0
aI0
aI4
aI14
aI6
aI0
aI0
aI0
aI0
aI0
aI11
aI13
aI15
aI1
aI0
aI0
aI0
aI0
aI0
aI0
aI14
aI7
aI0
aI0
aI3
aI6
aI2
aI4
aI15
aI6
aI0
aI0
aI1
aI11
aI15
aI14
aI8
aI0
aI0
aI3
aa(lp318
I0
aI0
aI4
aI14
aI15
aI6
aI0
aI0
aI0
aI0
aI13
aI5
aI9
aI11
aI0
aI0
aI0
aI0
aI0
aI0
aI5
aI11
aI0
aI0
aI0
aI0
aI1
aI9
aI16
aI4
aI0
aI0
aI0
aI0
aI3
aI9
aI9
aI15
aI1
aI0
aI0
aI0
aI0
aI0
aI0
aI15
aI4
aI0
aI0
aI8
aI14
aI8
aI5
aI16
aI4
aI0
aI0
aI0
aI6
aI14
aI15
aI8
aI0
aI0
aI3
aa(lp319
I0
aI0
aI8
aI13
aI8
aI0
aI0
aI0
aI0
aI4
aI13
aI6
aI14
aI3
aI0
aI0
aI0
aI7
aI8
aI0
aI12
aI5
aI0
aI0
aI0
aI3
aI10
aI8
aI16
aI1
aI0
aI0
aI0
aI0
aI0
aI5
aI14
aI12
aI0
aI0
aI0
aI0
aI0
aI0
aI0
aI13
aI8
aI0
aI0
aI0
aI10
aI10
aI0
aI6
aI12
aI0
aI0
aI0
aI4
aI15
aI16
aI16
aI6
aI0
aI3
aa(lp320
I0
aI0
aI5
aI12
aI10
aI0
aI0
aI0
aI0
aI2
aI15
aI14
aI16
aI1
aI0
aI0
aI0
aI0
aI11
aI3
aI16
aI1
aI0
aI0
aI0
aI0
aI0
aI0
aI11
aI5
aI0
aI0
aI0
aI0
aI0
aI0
aI7
aI14
aI0
aI0
aI0
aI0
aI0
aI0
aI0
aI9
aI10
aI0
aI0
aI0
aI10
aI7
aI5
aI12
aI12
aI0
aI0
aI0
aI6
aI14
aI16
aI13
aI4
aI0
aI3
aa(lp321
I0
aI2
aI12
aI15
aI11
aI3
aI0
aI0
aI0
aI10
aI13
aI5
aI13
aI13
aI0
aI0
aI0
aI2
aI2
aI0
aI12
aI14
aI0
aI0
aI0
aI0
aI0
aI7
aI15
aI3
aI0
aI0
aI0
aI0
aI0
aI5
aI15
aI3
aI0
aI0
aI0
aI0
aI0
aI0
aI8
aI15
aI1
aI0
aI0
aI0
aI8
aI5
aI4
aI12
aI10
aI0
aI0
aI0
aI14
aI16
aI16
aI16
aI5
aI0
aI3
aa(lp322
I0
aI0
aI2
aI10
aI16
aI12
aI0
aI0
aI0
aI2
aI15
aI13
aI9
aI16
aI2
aI0
aI0
aI1
aI9
aI0
aI8
aI14
aI1
aI0
aI0
aI0
aI0
aI4
aI16
aI10
aI0
aI0
aI0
aI0
aI0
aI1
aI10
aI16
aI3
aI0
aI0
aI0
aI2
aI0
aI0
aI14
aI7
aI0
aI0
aI0
aI9
aI12
aI11
aI16
aI3
aI0
aI0
aI0
aI1
aI11
aI14
aI6
aI0
aI0
aI3
aa(lp323
I0
aI1
aI13
aI16
aI14
aI1
aI0
aI0
aI0
aI14
aI15
aI8
aI14
aI10
aI0
aI0
aI0
aI5
aI5
aI0
aI13
aI10
aI0
aI0
aI0
aI0
aI0
aI12
aI16
aI8
aI0
aI0
aI0
aI0
aI4
aI16
aI16
aI16
aI5
aI0
aI0
aI0
aI0
aI3
aI0
aI16
aI10
aI0
aI0
aI0
aI3
aI4
aI10
aI16
aI8
aI0
aI0
aI0
aI11
aI16
aI16
aI8
aI0
aI0
aI3
aa(lp324
I0
aI0
aI8
aI12
aI16
aI9
aI1
aI0
aI0
aI0
aI14
aI11
aI7
aI16
aI4
aI0
aI0
aI0
aI0
aI0
aI4
aI16
aI2
aI0
aI0
aI0
aI0
aI4
aI14
aI16
aI3
aI0
aI0
aI0
aI0
aI8
aI14
aI15
aI8
aI0
aI0
aI0
aI0
aI0
aI0
aI9
aI11
aI0
aI0
aI3
aI12
aI4
aI6
aI14
aI7
aI0
aI0
aI1
aI9
aI16
aI16
aI11
aI0
aI0
aI3
aa(lp325
I0
aI0
aI4
aI14
aI12
aI1
aI0
aI0
aI0
aI0
aI11
aI11
aI10
aI5
aI0
aI0
aI0
aI0
aI0
aI0
aI12
aI9
aI0
aI0
aI0
aI0
aI0
aI7
aI16
aI12
aI2
aI0
aI0
aI0
aI0
aI0
aI4
aI10
aI10
aI0
aI0
aI0
aI1
aI1
aI0
aI3
aI14
aI0
aI0
aI0
aI11
aI6
aI3
aI12
aI13
aI0
aI0
aI0
aI6
aI14
aI16
aI11
aI1
aI0
aI3
aa(lp326
I0
aI0
aI5
aI9
aI13
aI12
aI0
aI0
aI0
aI10
aI16
aI15
aI12
aI16
aI2
aI0
aI0
aI8
aI7
aI0
aI11
aI14
aI0
aI0
aI0
aI0
aI0
aI2
aI16
aI14
aI1
aI0
aI0
aI0
aI0
aI1
aI11
aI16
aI7
aI0
aI0
aI0
aI0
aI0
aI0
aI8
aI12
aI0
aI0
aI0
aI14
aI10
aI10
aI16
aI8
aI0
aI0
aI0
aI6
aI15
aI16
aI10
aI1
aI0
aI3
aa(lp327
I0
aI0
aI9
aI14
aI16
aI9
aI1
aI0
aI0
aI4
aI15
aI7
aI2
aI14
aI4
aI0
aI0
aI0
aI1
aI1
aI8
aI14
aI0
aI0
aI0
aI0
aI0
aI2
aI16
aI6
aI0
aI0
aI0
aI0
aI0
aI0
aI2
aI14
aI0
aI0
aI0
aI0
aI0
aI0
aI0
aI6
aI10
aI0
aI0
aI3
aI9
aI4
aI4
aI10
aI10
aI0
aI0
aI1
aI10
aI13
aI12
aI9
aI0
aI0
aI3
aa(lp328
I0
aI1
aI13
aI16
aI16
aI4
aI0
aI0
aI0
aI2
aI15
aI9
aI12
aI12
aI0
aI0
aI0
aI0
aI0
aI5
aI15
aI9
aI0
aI0
aI0
aI0
aI0
aI16
aI16
aI14
aI3
aI0
aI0
aI0
aI0
aI4
aI4
aI11
aI12
aI0
aI0
aI3
aI6
aI0
aI0
aI5
aI16
aI0
aI0
aI7
aI14
aI4
aI8
aI15
aI10
aI0
aI0
aI0
aI13
aI16
aI16
aI11
aI1
aI0
aI3
aa(lp329
I0
aI0
aI7
aI15
aI15
aI9
aI1
aI0
aI0
aI7
aI15
aI5
aI4
aI14
aI4
aI0
aI0
aI2
aI2
aI0
aI7
aI13
aI1
aI0
aI0
aI0
aI2
aI12
aI15
aI5
aI0
aI0
aI0
aI0
aI1
aI5
aI10
aI13
aI0
aI0
aI0
aI0
aI0
aI0
aI0
aI10
aI7
aI0
aI0
aI0
aI11
aI1
aI1
aI12
aI7
aI0
aI0
aI0
aI8
aI14
aI13
aI8
aI0
aI0
aI3
aa(lp330
I0
aI0
aI12
aI16
aI16
aI10
aI0
aI0
aI0
aI0
aI13
aI13
aI8
aI16
aI5
aI0
aI0
aI0
aI0
aI0
aI0
aI16
aI8
aI0
aI0
aI0
aI1
aI8
aI13
aI15
aI2
aI0
aI0
aI0
aI7
aI16
aI16
aI15
aI3
aI0
aI0
aI0
aI0
aI3
aI4
aI11
aI15
aI0
aI0
aI1
aI11
aI0
aI2
aI13
aI15
aI0
aI0
aI1
aI13
aI16
aI16
aI14
aI6
aI0
aI3
aa(lp331
I0
aI3
aI13
aI16
aI14
aI2
aI0
aI0
aI0
aI14
aI11
aI3
aI16
aI8
aI0
aI0
aI0
aI7
aI3
aI7
aI16
aI8
aI0
aI0
aI0
aI0
aI5
aI16
aI16
aI16
aI5
aI0
aI0
aI0
aI2
aI10
aI6
aI11
aI12
aI0
aI0
aI0
aI0
aI0
aI0
aI11
aI13
aI0
aI0
aI1
aI10
aI1
aI4
aI15
aI9
aI0
aI0
aI2
aI15
aI16
aI16
aI11
aI0
aI0
aI3
aa(lp332
I0
aI0
aI13
aI16
aI16
aI6
aI0
aI0
aI0
aI6
aI16
aI6
aI10
aI16
aI0
aI0
aI0
aI1
aI7
aI5
aI14
aI8
aI0
aI0
aI0
aI0
aI1
aI15
aI16
aI13
aI1
aI0
aI0
aI0
aI0
aI3
aI4
aI13
aI10
aI0
aI0
aI0
aI0
aI0
aI0
aI9
aI11
aI0
aI0
aI2
aI14
aI5
aI6
aI16
aI4
aI0
aI0
aI1
aI15
aI16
aI16
aI10
aI0
aI0
aI3
aa(lp333
I0
aI0
aI13
aI16
aI16
aI10
aI0
aI0
aI0
aI1
aI11
aI6
aI9
aI16
aI6
aI0
aI0
aI0
aI0
aI5
aI10
aI16
aI5
aI0
aI0
aI0
aI2
aI15
aI16
aI15
aI0
aI0
aI0
aI0
aI0
aI0
aI5
aI15
aI7
aI0
aI0
aI0
aI0
aI0
aI0
aI13
aI8
aI0
aI0
aI1
aI13
aI10
aI6
aI14
aI7
aI0
aI0
aI1
aI11
aI16
aI16
aI12
aI0
aI0
aI3
aa(lp334
I0
aI5
aI16
aI16
aI15
aI2
aI0
aI0
aI0
aI11
aI13
aI8
aI11
aI15
aI0
aI0
aI0
aI1
aI1
aI0
aI7
aI16
aI0
aI0
aI0
aI0
aI0
aI11
aI16
aI14
aI1
aI0
aI0
aI0
aI0
aI12
aI12
aI15
aI11
aI0
aI0
aI0
aI0
aI0
aI0
aI8
aI12
aI0
aI0
aI5
aI11
aI4
aI3
aI12
aI11
aI0
aI0
aI4
aI14
aI16
aI16
aI16
aI4
aI0
aI3
aa(lp335
I0
aI0
aI7
aI16
aI15
aI2
aI0
aI0
aI0
aI7
aI15
aI7
aI12
aI10
aI0
aI0
aI0
aI8
aI6
aI0
aI10
aI12
aI0
aI0
aI0
aI0
aI0
aI6
aI16
aI12
aI1
aI0
aI0
aI0
aI0
aI5
aI12
aI15
aI10
aI0
aI0
aI0
aI0
aI0
aI0
aI8
aI12
aI0
aI0
aI0
aI6
aI9
aI4
aI13
aI10
aI0
aI0
aI0
aI5
aI16
aI16
aI13
aI1
aI0
aI3
aa(lp336
I0
aI0
aI5
aI13
aI13
aI2
aI0
aI0
aI0
aI0
aI12
aI14
aI16
aI8
aI0
aI0
aI0
aI0
aI0
aI3
aI16
aI5
aI0
aI0
aI0
aI0
aI0
aI4
aI16
aI5
aI0
aI0
aI0
aI0
aI0
aI0
aI10
aI14
aI2
aI0
aI0
aI0
aI0
aI0
aI3
aI16
aI6
aI0
aI0
aI0
aI1
aI0
aI5
aI16
aI4
aI0
aI0
aI0
aI6
aI13
aI16
aI12
aI3
aI0
aI3
aa(lp337
I0
aI0
aI10
aI13
aI7
aI1
aI0
aI0
aI0
aI6
aI16
aI15
aI16
aI5
aI0
aI0
aI0
aI9
aI9
aI8
aI16
aI2
aI0
aI0
aI0
aI0
aI2
aI1
aI16
aI8
aI0
aI0
aI0
aI0
aI0
aI0
aI9
aI16
aI1
aI0
aI0
aI0
aI0
aI0
aI2
aI16
aI10
aI0
aI0
aI0
aI7
aI11
aI14
aI15
aI7
aI0
aI0
aI0
aI11
aI13
aI12
aI3
aI0
aI0
aI3
aa(lp338
I0
aI0
aI1
aI12
aI15
aI1
aI0
aI0
aI0
aI0
aI10
aI16
aI16
aI0
aI0
aI0
aI0
aI3
aI16
aI15
aI10
aI0
aI0
aI0
aI0
aI6
aI16
aI15
aI15
aI2
aI0
aI0
aI0
aI0
aI4
aI2
aI14
aI15
aI1
aI0
aI0
aI0
aI0
aI0
aI3
aI15
aI5
aI0
aI0
aI0
aI2
aI14
aI14
aI16
aI5
aI0
aI0
aI0
aI0
aI15
aI16
aI13
aI1
aI0
aI3
aa(lp339
I0
aI0
aI5
aI12
aI14
aI0
aI0
aI0
aI0
aI2
aI14
aI10
aI15
aI0
aI0
aI0
aI0
aI3
aI15
aI11
aI11
aI0
aI0
aI0
aI0
aI2
aI12
aI15
aI11
aI2
aI0
aI0
aI0
aI0
aI0
aI0
aI8
aI15
aI1
aI0
aI0
aI0
aI0
aI0
aI1
aI14
aI4
aI0
aI0
aI0
aI2
aI7
aI4
aI14
aI3
aI0
aI0
aI0
aI3
aI13
aI14
aI10
aI0
aI0
aI3
aa(lp340
I0
aI0
aI8
aI14
aI16
aI12
aI1
aI0
aI0
aI2
aI11
aI6
aI5
aI15
aI4
aI0
aI0
aI0
aI0
aI1
aI9
aI14
aI0
aI0
aI0
aI0
aI0
aI11
aI11
aI0
aI0
aI0
aI0
aI0
aI0
aI2
aI15
aI7
aI0
aI0
aI0
aI0
aI0
aI0
aI4
aI16
aI3
aI0
aI0
aI0
aI9
aI5
aI4
aI15
aI3
aI0
aI0
aI0
aI9
aI15
aI13
aI5
aI0
aI0
aI3
aa(lp341
I0
aI0
aI1
aI9
aI16
aI16
aI12
aI1
aI0
aI0
aI10
aI13
aI8
aI12
aI16
aI3
aI0
aI0
aI2
aI0
aI1
aI13
aI10
aI0
aI0
aI0
aI0
aI9
aI16
aI11
aI0
aI0
aI0
aI0
aI0
aI14
aI16
aI15
aI0
aI0
aI0
aI0
aI0
aI7
aI10
aI16
aI2
aI0
aI0
aI0
aI2
aI16
aI14
aI13
aI0
aI0
aI0
aI0
aI0
aI14
aI14
aI2
aI0
aI0
aI3
aa(lp342
I0
aI1
aI9
aI12
aI14
aI10
aI1
aI0
aI0
aI7
aI15
aI7
aI6
aI15
aI8
aI0
aI0
aI1
aI1
aI0
aI3
aI16
aI5
aI0
aI0
aI0
aI2
aI11
aI16
aI9
aI0
aI0
aI0
aI0
aI2
aI14
aI16
aI8
aI0
aI0
aI0
aI0
aI0
aI1
aI7
aI15
aI7
aI0
aI0
aI0
aI12
aI6
aI6
aI15
aI7
aI0
aI0
aI0
aI8
aI15
aI14
aI9
aI0
aI0
aI3
aa(lp343
I0
aI2
aI12
aI15
aI10
aI0
aI0
aI0
aI0
aI4
aI14
aI8
aI16
aI7
aI0
aI0
aI0
aI0
aI0
aI2
aI16
aI10
aI0
aI0
aI0
aI0
aI2
aI16
aI16
aI9
aI0
aI0
aI0
aI0
aI1
aI8
aI13
aI14
aI2
aI0
aI0
aI0
aI0
aI0
aI2
aI13
aI8
aI0
aI0
aI2
aI9
aI8
aI8
aI12
aI11
aI0
aI0
aI2
aI11
aI14
aI14
aI10
aI3
aI0
aI3
aa(lp344
I0
aI1
aI12
aI13
aI7
aI0
aI0
aI0
aI0
aI2
aI15
aI13
aI16
aI7
aI0
aI0
aI0
aI0
aI0
aI6
aI16
aI8
aI0
aI0
aI0
aI0
aI7
aI16
aI16
aI3
aI0
aI0
aI0
aI0
aI4
aI12
aI16
aI12
aI0
aI0
aI0
aI0
aI0
aI0
aI4
aI16
aI8
aI0
aI0
aI1
aI8
aI10
aI12
aI16
aI10
aI0
aI0
aI2
aI12
aI14
aI12
aI9
aI1
aI0
aI3
aa(lp345
I0
aI0
aI4
aI12
aI15
aI5
aI0
aI0
aI0
aI2
aI15
aI13
aI11
aI11
aI0
aI0
aI0
aI2
aI10
aI2
aI5
aI16
aI0
aI0
aI0
aI0
aI0
aI4
aI14
aI14
aI0
aI0
aI0
aI0
aI0
aI5
aI12
aI14
aI7
aI0
aI0
aI0
aI0
aI0
aI0
aI3
aI14
aI0
aI0
aI0
aI9
aI10
aI3
aI8
aI15
aI2
aI0
aI0
aI2
aI9
aI16
aI16
aI7
aI0
aI3
aa(lp346
I0
aI0
aI7
aI16
aI15
aI7
aI0
aI0
aI0
aI0
aI16
aI10
aI8
aI15
aI0
aI0
aI0
aI0
aI5
aI2
aI9
aI15
aI0
aI0
aI0
aI0
aI5
aI16
aI16
aI8
aI0
aI0
aI0
aI0
aI2
aI5
aI11
aI14
aI3
aI0
aI0
aI0
aI0
aI0
aI0
aI8
aI12
aI0
aI0
aI0
aI10
aI10
aI7
aI13
aI12
aI0
aI0
aI0
aI6
aI12
aI16
aI11
aI4
aI0
aI3
aa(lp347
I0
aI0
aI5
aI12
aI12
aI1
aI0
aI0
aI0
aI11
aI16
aI12
aI14
aI9
aI0
aI0
aI0
aI14
aI7
aI0
aI10
aI11
aI0
aI0
aI0
aI0
aI3
aI15
aI16
aI8
aI0
aI0
aI0
aI0
aI2
aI12
aI12
aI14
aI3
aI0
aI0
aI0
aI0
aI0
aI0
aI10
aI14
aI0
aI0
aI0
aI9
aI10
aI8
aI13
aI16
aI0
aI0
aI0
aI6
aI12
aI16
aI12
aI4
aI0
aI3
aa(lp348
I0
aI0
aI9
aI16
aI16
aI9
aI0
aI0
aI0
aI1
aI16
aI12
aI16
aI16
aI0
aI0
aI0
aI0
aI2
aI7
aI16
aI9
aI0
aI0
aI0
aI0
aI7
aI16
aI15
aI8
aI1
aI0
aI0
aI0
aI5
aI9
aI9
aI15
aI8
aI0
aI0
aI0
aI0
aI0
aI0
aI13
aI12
aI0
aI0
aI0
aI6
aI8
aI12
aI16
aI10
aI0
aI0
aI0
aI9
aI15
aI12
aI4
aI0
aI0
aI3
aa(lp349
I0
aI0
aI5
aI15
aI13
aI2
aI0
aI0
aI0
aI0
aI10
aI13
aI12
aI11
aI0
aI0
aI0
aI0
aI3
aI2
aI4
aI15
aI0
aI0
aI0
aI0
aI0
aI9
aI16
aI10
aI0
aI0
aI0
aI0
aI0
aI3
aI13
aI16
aI6
aI0
aI0
aI0
aI0
aI0
aI0
aI7
aI14
aI0
aI0
aI0
aI5
aI8
aI8
aI10
aI16
aI1
aI0
aI0
aI4
aI9
aI14
aI13
aI7
aI0
aI3
aa(lp350
I0
aI0
aI8
aI15
aI16
aI14
aI2
aI0
aI0
aI1
aI16
aI14
aI12
aI16
aI7
aI0
aI0
aI0
aI8
aI1
aI3
aI16
aI5
aI0
aI0
aI0
aI0
aI8
aI16
aI11
aI0
aI0
aI0
aI0
aI0
aI6
aI14
aI13
aI0
aI0
aI0
aI0
aI0
aI0
aI3
aI16
aI6
aI0
aI0
aI0
aI10
aI8
aI12
aI16
aI2
aI0
aI0
aI0
aI9
aI16
aI15
aI5
aI0
aI0
aI3
aa(lp351
I0
aI0
aI8
aI13
aI12
aI2
aI0
aI0
aI0
aI3
aI16
aI13
aI12
aI14
aI0
aI0
aI0
aI0
aI6
aI1
aI9
aI13
aI0
aI0
aI0
aI0
aI0
aI5
aI16
aI9
aI0
aI0
aI0
aI0
aI0
aI1
aI12
aI16
aI2
aI0
aI0
aI0
aI0
aI0
aI0
aI12
aI9
aI0
aI0
aI1
aI10
aI6
aI7
aI15
aI9
aI0
aI0
aI0
aI9
aI12
aI15
aI11
aI2
aI0
aI3
aa(lp352
I0
aI0
aI9
aI14
aI15
aI4
aI0
aI0
aI0
aI7
aI16
aI16
aI16
aI10
aI0
aI0
aI0
aI5
aI10
aI4
aI16
aI4
aI0
aI0
aI0
aI0
aI0
aI16
aI16
aI7
aI0
aI0
aI0
aI0
aI0
aI3
aI9
aI16
aI3
aI0
aI0
aI0
aI2
aI0
aI1
aI15
aI7
aI0
aI0
aI0
aI15
aI13
aI13
aI16
aI4
aI0
aI0
aI0
aI9
aI15
aI15
aI8
aI0
aI0
aI3
aa(lp353
I0
aI0
aI7
aI11
aI14
aI4
aI0
aI0
aI0
aI12
aI16
aI12
aI15
aI8
aI0
aI0
aI0
aI6
aI9
aI0
aI12
aI7
aI0
aI0
aI0
aI0
aI1
aI9
aI16
aI2
aI0
aI0
aI0
aI0
aI8
aI16
aI16
aI15
aI1
aI0
aI0
aI0
aI0
aI0
aI2
aI15
aI9
aI0
aI0
aI2
aI10
aI4
aI2
aI13
aI10
aI0
aI0
aI0
aI7
aI12
aI15
aI12
aI1
aI0
aI3
aa(lp354
I0
aI1
aI9
aI16
aI15
aI1
aI0
aI0
aI0
aI8
aI14
aI8
aI14
aI8
aI0
aI0
aI0
aI8
aI5
aI3
aI15
aI5
aI0
aI0
aI0
aI0
aI0
aI9
aI16
aI6
aI0
aI0
aI0
aI0
aI0
aI0
aI9
aI16
aI3
aI0
aI0
aI0
aI0
aI0
aI0
aI10
aI10
aI0
aI0
aI0
aI5
aI7
aI6
aI16
aI7
aI0
aI0
aI0
aI9
aI16
aI14
aI9
aI1
aI0
aI3
aa(lp355
I0
aI0
aI5
aI14
aI16
aI7
aI0
aI0
aI0
aI3
aI14
aI2
aI5
aI12
aI0
aI0
aI0
aI5
aI9
aI0
aI7
aI11
aI0
aI0
aI0
aI0
aI0
aI5
aI15
aI5
aI0
aI0
aI0
aI0
aI0
aI7
aI12
aI14
aI1
aI0
aI0
aI0
aI0
aI0
aI0
aI11
aI7
aI0
aI0
aI0
aI3
aI8
aI3
aI12
aI6
aI0
aI0
aI0
aI7
aI16
aI13
aI8
aI0
aI0
aI3
aa(lp356
I0
aI1
aI7
aI15
aI13
aI2
aI0
aI0
aI0
aI7
aI14
aI7
aI13
aI8
aI0
aI0
aI0
aI0
aI0
aI1
aI13
aI7
aI0
aI0
aI0
aI0
aI0
aI7
aI16
aI5
aI0
aI0
aI0
aI0
aI0
aI1
aI9
aI12
aI0
aI0
aI0
aI0
aI0
aI0
aI2
aI14
aI6
aI0
aI0
aI0
aI5
aI5
aI2
aI14
aI8
aI0
aI0
aI0
aI11
aI16
aI12
aI10
aI1
aI0
aI3
aa(lp357
I0
aI2
aI11
aI14
aI7
aI1
aI0
aI0
aI0
aI10
aI15
aI13
aI16
aI4
aI0
aI0
aI0
aI11
aI12
aI5
aI16
aI3
aI0
aI0
aI0
aI1
aI2
aI15
aI14
aI0
aI0
aI0
aI0
aI0
aI5
aI12
aI15
aI11
aI1
aI0
aI0
aI0
aI0
aI0
aI2
aI14
aI10
aI0
aI0
aI0
aI8
aI12
aI12
aI16
aI11
aI0
aI0
aI0
aI9
aI15
aI11
aI8
aI1
aI0
aI3
aa(lp358
I0
aI1
aI10
aI16
aI16
aI15
aI6
aI0
aI0
aI5
aI15
aI8
aI6
aI16
aI11
aI0
aI0
aI0
aI2
aI5
aI15
aI13
aI3
aI0
aI0
aI0
aI0
aI16
aI14
aI0
aI0
aI0
aI0
aI0
aI0
aI6
aI16
aI11
aI1
aI0
aI0
aI0
aI0
aI0
aI6
aI16
aI8
aI0
aI0
aI0
aI3
aI5
aI12
aI16
aI5
aI0
aI0
aI0
aI16
aI16
aI13
aI7
aI0
aI0
aI3
aa(lp359
I0
aI0
aI4
aI13
aI16
aI16
aI9
aI0
aI0
aI2
aI12
aI6
aI1
aI12
aI12
aI0
aI0
aI1
aI3
aI2
aI15
aI10
aI0
aI0
aI0
aI0
aI0
aI11
aI9
aI0
aI0
aI0
aI0
aI0
aI0
aI4
aI14
aI2
aI0
aI0
aI0
aI0
aI0
aI0
aI13
aI10
aI0
aI0
aI0
aI0
aI0
aI0
aI10
aI11
aI0
aI0
aI0
aI6
aI9
aI13
aI12
aI1
aI0
aI0
aI3
aa(lp360
I0
aI3
aI13
aI15
aI16
aI9
aI1
aI0
aI0
aI6
aI12
aI2
aI3
aI16
aI6
aI0
aI0
aI0
aI0
aI2
aI13
aI11
aI0
aI0
aI0
aI0
aI0
aI9
aI13
aI0
aI0
aI0
aI0
aI0
aI0
aI8
aI12
aI0
aI0
aI0
aI0
aI0
aI0
aI3
aI15
aI5
aI0
aI0
aI0
aI0
aI4
aI3
aI14
aI11
aI0
aI0
aI0
aI3
aI15
aI15
aI9
aI1
aI0
aI0
aI3
aa(lp361
I0
aI6
aI15
aI16
aI16
aI15
aI6
aI0
aI0
aI9
aI16
aI6
aI5
aI15
aI12
aI0
aI0
aI0
aI1
aI1
aI13
aI15
aI3
aI0
aI0
aI0
aI0
aI5
aI16
aI5
aI0
aI0
aI0
aI0
aI0
aI0
aI14
aI10
aI0
aI0
aI0
aI0
aI0
aI0
aI12
aI14
aI0
aI0
aI0
aI3
aI7
aI5
aI14
aI13
aI0
aI0
aI0
aI9
aI16
aI16
aI13
aI2
aI0
aI0
aI3
aa(lp362
I0
aI0
aI10
aI15
aI16
aI16
aI9
aI0
aI0
aI1
aI10
aI2
aI0
aI10
aI14
aI0
aI0
aI0
aI0
aI0
aI7
aI15
aI3
aI0
aI0
aI0
aI0
aI13
aI11
aI1
aI0
aI0
aI0
aI0
aI0
aI13
aI11
aI0
aI0
aI0
aI0
aI0
aI0
aI5
aI15
aI5
aI0
aI0
aI0
aI0
aI5
aI4
aI12
aI11
aI0
aI0
aI0
aI0
aI9
aI16
aI10
aI2
aI0
aI0
aI3
aa(lp363
I0
aI1
aI7
aI11
aI16
aI11
aI0
aI0
aI0
aI8
aI14
aI8
aI10
aI16
aI3
aI0
aI0
aI4
aI4
aI3
aI15
aI12
aI0
aI0
aI0
aI0
aI0
aI8
aI13
aI0
aI0
aI0
aI0
aI0
aI0
aI5
aI16
aI4
aI0
aI0
aI0
aI0
aI0
aI0
aI10
aI11
aI0
aI0
aI0
aI0
aI0
aI5
aI13
aI13
aI0
aI0
aI0
aI0
aI13
aI13
aI8
aI0
aI0
aI0
aI3
aa(lp364
I0
aI0
aI7
aI13
aI12
aI3
aI0
aI0
aI0
aI0
aI14
aI8
aI11
aI12
aI0
aI0
aI0
aI0
aI0
aI1
aI9
aI12
aI0
aI0
aI0
aI0
aI0
aI13
aI16
aI1
aI0
aI0
aI0
aI0
aI0
aI9
aI12
aI12
aI3
aI0
aI0
aI0
aI0
aI0
aI0
aI6
aI12
aI0
aI0
aI0
aI8
aI1
aI2
aI8
aI13
aI0
aI0
aI0
aI10
aI16
aI16
aI11
aI2
aI0
aI3
aa(lp365
I0
aI0
aI8
aI13
aI12
aI7
aI0
aI0
aI0
aI0
aI12
aI9
aI9
aI15
aI2
aI0
aI0
aI0
aI0
aI7
aI14
aI11
aI0
aI0
aI0
aI0
aI4
aI16
aI10
aI0
aI0
aI0
aI0
aI0
aI0
aI9
aI16
aI6
aI0
aI0
aI0
aI0
aI0
aI0
aI2
aI15
aI5
aI0
aI0
aI0
aI9
aI1
aI4
aI16
aI4
aI0
aI0
aI0
aI12
aI16
aI16
aI8
aI1
aI0
aI3
aa(lp366
I0
aI0
aI11
aI16
aI16
aI8
aI0
aI0
aI0
aI1
aI13
aI7
aI9
aI16
aI3
aI0
aI0
aI0
aI0
aI1
aI10
aI15
aI1
aI0
aI0
aI0
aI0
aI15
aI16
aI10
aI0
aI0
aI0
aI0
aI0
aI14
aI16
aI16
aI5
aI0
aI0
aI0
aI0
aI0
aI0
aI8
aI14
aI0
aI0
aI1
aI12
aI4
aI5
aI13
aI15
aI0
aI0
aI0
aI11
aI16
aI16
aI15
aI5
aI0
aI3
aa(lp367
I0
aI4
aI16
aI16
aI16
aI15
aI2
aI0
aI0
aI3
aI11
aI8
aI9
aI16
aI8
aI0
aI0
aI0
aI0
aI1
aI14
aI15
aI1
aI0
aI0
aI0
aI2
aI15
aI16
aI6
aI0
aI0
aI0
aI0
aI2
aI12
aI14
aI14
aI0
aI0
aI0
aI0
aI0
aI0
aI3
aI16
aI1
aI0
aI0
aI5
aI10
aI4
aI7
aI16
aI2
aI0
aI0
aI2
aI16
aI16
aI16
aI8
aI0
aI0
aI3
aa(lp368
I0
aI0
aI16
aI16
aI16
aI10
aI0
aI0
aI0
aI0
aI6
aI9
aI15
aI16
aI1
aI0
aI0
aI0
aI0
aI8
aI16
aI7
aI0
aI0
aI0
aI0
aI0
aI4
aI16
aI6
aI0
aI0
aI0
aI0
aI0
aI0
aI8
aI15
aI1
aI0
aI0
aI0
aI0
aI0
aI0
aI15
aI10
aI0
aI0
aI0
aI1
aI4
aI9
aI15
aI12
aI0
aI0
aI0
aI15
aI16
aI16
aI11
aI2
aI0
aI3
aa(lp369
I0
aI2
aI12
aI16
aI16
aI6
aI0
aI0
aI0
aI11
aI15
aI8
aI15
aI12
aI0
aI0
aI0
aI10
aI2
aI7
aI16
aI10
aI0
aI0
aI0
aI0
aI0
aI12
aI15
aI2
aI0
aI0
aI0
aI0
aI0
aI3
aI16
aI11
aI0
aI0
aI0
aI0
aI0
aI0
aI6
aI15
aI10
aI0
aI0
aI0
aI7
aI5
aI10
aI16
aI15
aI0
aI0
aI3
aI16
aI16
aI16
aI10
aI2
aI0
aI3
aa(lp370
I0
aI0
aI8
aI16
aI13
aI4
aI0
aI0
aI0
aI0
aI5
aI6
aI12
aI14
aI0
aI0
aI0
aI0
aI0
aI3
aI15
aI14
aI0
aI0
aI0
aI0
aI0
aI13
aI15
aI4
aI0
aI0
aI0
aI0
aI0
aI9
aI12
aI1
aI0
aI0
aI0
aI0
aI0
aI1
aI11
aI12
aI0
aI0
aI0
aI0
aI3
aI4
aI9
aI16
aI4
aI0
aI0
aI0
aI8
aI15
aI14
aI12
aI3
aI0
aI3
aa(lp371
I0
aI1
aI9
aI15
aI16
aI7
aI0
aI0
aI0
aI6
aI14
aI7
aI14
aI8
aI0
aI0
aI0
aI3
aI2
aI0
aI14
aI6
aI0
aI0
aI0
aI0
aI1
aI16
aI16
aI4
aI0
aI0
aI0
aI0
aI0
aI8
aI15
aI16
aI4
aI0
aI0
aI0
aI0
aI0
aI0
aI13
aI8
aI0
aI0
aI0
aI6
aI8
aI11
aI16
aI4
aI0
aI0
aI0
aI15
aI12
aI10
aI3
aI0
aI0
aI3
aa(lp372
I0
aI2
aI10
aI13
aI7
aI0
aI0
aI0
aI0
aI8
aI12
aI9
aI16
aI3
aI0
aI0
aI0
aI1
aI0
aI0
aI16
aI5
aI0
aI0
aI0
aI0
aI0
aI6
aI16
aI2
aI0
aI0
aI0
aI0
aI0
aI4
aI14
aI13
aI0
aI0
aI0
aI0
aI0
aI0
aI3
aI16
aI7
aI0
aI0
aI0
aI3
aI5
aI10
aI16
aI5
aI0
aI0
aI3
aI16
aI14
aI12
aI5
aI0
aI0
aI3
aa(lp373
I0
aI2
aI10
aI16
aI14
aI5
aI0
aI0
aI0
aI6
aI13
aI8
aI15
aI12
aI0
aI0
aI0
aI0
aI0
aI1
aI13
aI10
aI0
aI0
aI0
aI0
aI7
aI15
aI16
aI8
aI0
aI0
aI0
aI0
aI6
aI12
aI13
aI16
aI5
aI0
aI0
aI0
aI0
aI0
aI0
aI14
aI8
aI0
aI0
aI0
aI11
aI14
aI16
aI15
aI3
aI0
aI0
aI1
aI13
aI10
aI8
aI2
aI0
aI0
aI3
aa(lp374
I0
aI1
aI9
aI13
aI7
aI0
aI0
aI0
aI0
aI7
aI12
aI6
aI15
aI6
aI0
aI0
aI0
aI0
aI1
aI4
aI13
aI10
aI0
aI0
aI0
aI0
aI4
aI16
aI16
aI13
aI0
aI0
aI0
aI0
aI0
aI0
aI2
aI13
aI6
aI0
aI0
aI0
aI0
aI0
aI0
aI10
aI8
aI0
aI0
aI0
aI9
aI7
aI9
aI15
aI1
aI0
aI0
aI0
aI13
aI15
aI9
aI1
aI0
aI0
aI3
aa(lp375
I0
aI2
aI14
aI16
aI7
aI0
aI0
aI0
aI0
aI2
aI11
aI11
aI16
aI4
aI0
aI0
aI0
aI0
aI0
aI0
aI13
aI8
aI0
aI0
aI0
aI0
aI4
aI9
aI15
aI7
aI0
aI0
aI0
aI0
aI7
aI16
aI16
aI12
aI1
aI0
aI0
aI0
aI0
aI0
aI3
aI16
aI8
aI0
aI0
aI1
aI6
aI11
aI15
aI16
aI7
aI0
aI0
aI2
aI13
aI14
aI11
aI5
aI0
aI0
aI3
aa(lp376
I0
aI1
aI14
aI16
aI5
aI0
aI0
aI0
aI0
aI2
aI13
aI13
aI16
aI4
aI0
aI0
aI0
aI0
aI4
aI13
aI16
aI3
aI0
aI0
aI0
aI0
aI9
aI16
aI16
aI13
aI0
aI0
aI0
aI0
aI4
aI8
aI8
aI16
aI8
aI0
aI0
aI0
aI0
aI1
aI5
aI14
aI11
aI0
aI0
aI1
aI13
aI16
aI16
aI15
aI3
aI0
aI0
aI0
aI15
aI11
aI5
aI1
aI0
aI0
aI3
aa(lp377
I0
aI1
aI9
aI15
aI9
aI0
aI0
aI0
aI0
aI4
aI13
aI7
aI15
aI4
aI0
aI0
aI0
aI0
aI0
aI2
aI15
aI3
aI0
aI0
aI0
aI0
aI12
aI16
aI16
aI11
aI1
aI0
aI0
aI0
aI5
aI5
aI5
aI13
aI8
aI0
aI0
aI0
aI0
aI0
aI1
aI12
aI6
aI0
aI0
aI0
aI9
aI8
aI14
aI12
aI1
aI0
aI0
aI0
aI15
aI12
aI6
aI0
aI0
aI0
aI3
aa(lp378
I0
aI0
aI4
aI13
aI11
aI1
aI0
aI0
aI0
aI9
aI15
aI10
aI12
aI8
aI0
aI0
aI0
aI8
aI10
aI0
aI6
aI9
aI0
aI0
aI0
aI0
aI0
aI1
aI16
aI3
aI0
aI0
aI0
aI0
aI0
aI14
aI16
aI13
aI3
aI0
aI0
aI0
aI6
aI2
aI4
aI8
aI12
aI0
aI0
aI1
aI15
aI4
aI5
aI12
aI12
aI0
aI0
aI0
aI7
aI13
aI16
aI13
aI1
aI0
aI3
aa(lp379
I0
aI0
aI5
aI14
aI8
aI0
aI0
aI0
aI0
aI0
aI15
aI11
aI15
aI0
aI0
aI0
aI0
aI0
aI5
aI2
aI11
aI3
aI0
aI0
aI0
aI0
aI0
aI9
aI16
aI5
aI0
aI0
aI0
aI0
aI1
aI12
aI12
aI15
aI5
aI0
aI0
aI0
aI0
aI0
aI0
aI5
aI12
aI0
aI0
aI0
aI6
aI4
aI7
aI12
aI10
aI0
aI0
aI0
aI9
aI15
aI12
aI9
aI1
aI0
aI3
aa(lp380
I0
aI0
aI6
aI16
aI9
aI1
aI0
aI0
aI0
aI3
aI15
aI8
aI13
aI3
aI0
aI0
aI0
aI8
aI8
aI0
aI11
aI4
aI0
aI0
aI0
aI1
aI0
aI7
aI16
aI6
aI0
aI0
aI0
aI0
aI2
aI16
aI14
aI16
aI5
aI0
aI0
aI0
aI0
aI5
aI0
aI11
aI8
aI0
aI0
aI0
aI4
aI6
aI9
aI15
aI2
aI0
aI0
aI0
aI4
aI15
aI11
aI3
aI0
aI0
aI3
aa(lp381
I0
aI0
aI10
aI16
aI12
aI1
aI0
aI0
aI0
aI9
aI16
aI12
aI16
aI7
aI0
aI0
aI0
aI4
aI7
aI1
aI16
aI4
aI0
aI0
aI0
aI0
aI0
aI14
aI16
aI8
aI0
aI0
aI0
aI0
aI0
aI10
aI14
aI16
aI4
aI0
aI0
aI5
aI7
aI0
aI0
aI14
aI9
aI0
aI0
aI3
aI15
aI5
aI6
aI15
aI7
aI0
aI0
aI0
aI8
aI16
aI16
aI8
aI0
aI0
aI3
aa(lp382
I0
aI5
aI14
aI12
aI15
aI15
aI3
aI0
aI0
aI0
aI2
aI4
aI11
aI16
aI5
aI0
aI0
aI0
aI0
aI1
aI15
aI9
aI0
aI0
aI0
aI0
aI0
aI7
aI16
aI1
aI0
aI0
aI0
aI0
aI0
aI3
aI16
aI11
aI0
aI0
aI0
aI0
aI0
aI0
aI15
aI16
aI0
aI0
aI0
aI1
aI7
aI10
aI16
aI7
aI0
aI0
aI0
aI2
aI12
aI13
aI4
aI0
aI0
aI0
aI3
aa(lp383
I0
aI0
aI2
aI12
aI16
aI7
aI0
aI0
aI0
aI0
aI0
aI10
aI16
aI3
aI0
aI0
aI0
aI0
aI0
aI3
aI15
aI5
aI0
aI0
aI0
aI0
aI0
aI0
aI6
aI15
aI3
aI0
aI0
aI0
aI0
aI0
aI0
aI8
aI14
aI0
aI0
aI0
aI0
aI0
aI0
aI11
aI16
aI0
aI0
aI0
aI0
aI3
aI13
aI16
aI9
aI0
aI0
aI0
aI6
aI16
aI12
aI8
aI1
aI0
aI3
aa(lp384
I0
aI0
aI9
aI12
aI14
aI16
aI16
aI2
aI0
aI0
aI4
aI12
aI9
aI12
aI16
aI1
aI0
aI0
aI0
aI0
aI1
aI14
aI8
aI0
aI0
aI0
aI0
aI0
aI8
aI14
aI1
aI0
aI0
aI0
aI0
aI2
aI16
aI12
aI0
aI0
aI0
aI0
aI0
aI0
aI13
aI16
aI5
aI0
aI0
aI0
aI0
aI1
aI13
aI14
aI1
aI0
aI0
aI0
aI10
aI16
aI13
aI1
aI0
aI0
aI3
aa(lp385
I0
aI0
aI7
aI16
aI14
aI2
aI0
aI0
aI0
aI6
aI14
aI8
aI16
aI9
aI0
aI0
aI0
aI1
aI2
aI2
aI16
aI8
aI0
aI0
aI0
aI0
aI0
aI12
aI16
aI5
aI0
aI0
aI0
aI0
aI0
aI5
aI13
aI16
aI3
aI0
aI0
aI0
aI0
aI0
aI1
aI16
aI8
aI0
aI0
aI0
aI1
aI8
aI14
aI14
aI1
aI0
aI0
aI0
aI7
aI15
aI6
aI1
aI0
aI0
aI3
aa(lp386
I0
aI0
aI1
aI8
aI14
aI16
aI12
aI0
aI0
aI0
aI10
aI15
aI13
aI16
aI12
aI0
aI0
aI1
aI12
aI3
aI9
aI15
aI1
aI0
aI0
aI0
aI0
aI8
aI16
aI8
aI0
aI0
aI0
aI0
aI0
aI8
aI16
aI16
aI4
aI0
aI0
aI0
aI0
aI1
aI8
aI16
aI6
aI0
aI0
aI0
aI0
aI5
aI15
aI12
aI1
aI0
aI0
aI0
aI0
aI13
aI10
aI1
aI0
aI0
aI3
aa(lp387
I0
aI1
aI12
aI16
aI14
aI4
aI0
aI0
aI0
aI8
aI11
aI0
aI10
aI8
aI0
aI0
aI0
aI1
aI1
aI4
aI14
aI4
aI0
aI0
aI0
aI0
aI2
aI16
aI11
aI0
aI0
aI0
aI0
aI0
aI0
aI3
aI13
aI11
aI0
aI0
aI0
aI0
aI0
aI0
aI1
aI11
aI7
aI0
aI0
aI0
aI10
aI0
aI1
aI10
aI8
aI0
aI0
aI0
aI13
aI15
aI15
aI10
aI2
aI0
aI3
aa(lp388
I0
aI0
aI12
aI16
aI16
aI10
aI1
aI0
aI0
aI0
aI13
aI7
aI4
aI16
aI7
aI0
aI0
aI0
aI0
aI5
aI12
aI15
aI2
aI0
aI0
aI0
aI0
aI7
aI16
aI12
aI0
aI0
aI0
aI0
aI0
aI0
aI7
aI16
aI5
aI0
aI0
aI1
aI3
aI0
aI0
aI9
aI15
aI0
aI0
aI6
aI12
aI4
aI2
aI11
aI16
aI0
aI0
aI1
aI10
aI16
aI16
aI16
aI7
aI0
aI3
aa(lp389
I0
aI2
aI15
aI16
aI15
aI1
aI0
aI0
aI0
aI3
aI9
aI5
aI14
aI7
aI0
aI0
aI0
aI0
aI0
aI3
aI15
aI5
aI0
aI0
aI0
aI0
aI6
aI16
aI8
aI0
aI0
aI0
aI0
aI0
aI6
aI13
aI16
aI10
aI0
aI0
aI0
aI0
aI0
aI0
aI6
aI16
aI1
aI0
aI0
aI0
aI0
aI0
aI2
aI14
aI7
aI0
aI0
aI0
aI14
aI13
aI16
aI11
aI1
aI0
aI3
aa(lp390
I0
aI1
aI10
aI16
aI16
aI4
aI0
aI0
aI0
aI8
aI13
aI12
aI16
aI10
aI0
aI0
aI0
aI2
aI0
aI14
aI15
aI3
aI0
aI0
aI0
aI0
aI0
aI11
aI16
aI8
aI0
aI0
aI0
aI0
aI0
aI0
aI7
aI16
aI3
aI0
aI0
aI2
aI1
aI0
aI0
aI13
aI8
aI0
aI0
aI8
aI12
aI4
aI10
aI16
aI5
aI0
aI0
aI2
aI13
aI16
aI12
aI5
aI0
aI0
aI3
aa.