(lp1
(lp2
I0
aI0
aI7
aI15
aI13
aI1
aI0
aI0
aI0
aI8
aI13
aI6
aI15
aI4
aI0
aI0
aI0
aI2
aI1
aI13
aI13
aI0
aI0
aI0
aI0
aI0
aI2
aI15
aI11
aI1
aI0
aI0
aI0
aI0
aI0
aI1
aI12
aI12
aI1
aI0
aI0
aI0
aI0
aI0
aI1
aI10
aI8
aI0
aI0
aI0
aI8
aI4
aI5
aI14
aI9
aI0
aI0
aI0
aI7
aI13
aI13
aI9
aI0
aI0
aI3
aa(lp3
I0
aI2
aI9
aI15
aI14
aI9
aI3
aI0
aI0
aI4
aI13
aI8
aI9
aI16
aI8
aI0
aI0
aI0
aI0
aI6
aI14
aI15
aI3
aI0
aI0
aI0
aI0
aI11
aI14
aI2
aI0
aI0
aI0
aI0
aI0
aI2
aI15
aI11
aI0
aI0
aI0
aI0
aI0
aI0
aI2
aI15
aI4
aI0
aI0
aI1
aI5
aI6
aI13
aI16
aI6
aI0
aI0
aI2
aI12
aI12
aI13
aI11
aI0
aI0
aI3
aa(lp4
I0
aI1
aI8
aI12
aI15
aI14
aI4
aI0
aI0
aI3
aI11
aI8
aI8
aI12
aI12
aI0
aI0
aI0
aI0
aI0
aI2
aI13
aI7
aI0
aI0
aI0
aI0
aI2
aI15
aI12
aI1
aI0
aI0
aI0
aI0
aI0
aI13
aI5
aI0
aI0
aI0
aI0
aI0
aI0
aI9
aI13
aI0
aI0
aI0
aI0
aI7
aI8
aI14
aI15
aI0
aI0
aI0
aI0
aI14
aI15
aI11
aI2
aI0
aI0
aI3
aa(lp5
I0
aI0
aI9
aI16
aI13
aI6
aI0
aI0
aI0
aI0
aI6
aI5
aI16
aI16
aI0
aI0
aI0
aI0
aI0
aI8
aI15
aI5
aI0
aI0
aI0
aI0
aI0
aI5
aI14
aI3
aI0
aI0
aI0
aI0
aI0
aI0
aI9
aI15
aI2
aI0
aI0
aI0
aI0
aI0
aI0
aI11
aI12
aI0
aI0
aI0
aI4
aI8
aI11
aI15
aI12
aI0
aI0
aI0
aI11
aI14
aI12
aI8
aI0
aI0
aI3
aa(lp6
I0
aI1
aI10
aI15
aI11
aI1
aI0
aI0
aI0
aI3
aI8
aI8
aI11
aI12
aI0
aI0
aI0
aI0
aI0
aI5
aI14
aI15
aI1
aI0
aI0
aI0
aI0
aI11
aI15
aI2
aI0
aI0
aI0
aI0
aI0
aI4
aI15
aI2
aI0
aI0
aI0
aI0
aI0
aI0
aI12
aI10
aI0
aI0
aI0
aI0
aI3
aI4
aI10
aI16
aI1
aI0
aI0
aI0
aI13
aI16
aI15
aI10
aI0
aI0
aI3
aa(lp7
I0
aI0
aI10
aI15
aI14
aI4
aI0
aI0
aI0
aI0
aI4
aI6
aI13
aI16
aI2
aI0
aI0
aI0
aI0
aI3
aI16
aI9
aI0
aI0
aI0
aI0
aI0
aI1
aI16
aI6
aI0
aI0
aI0
aI0
aI0
aI0
aI10
aI12
aI0
aI0
aI0
aI0
aI0
aI0
aI1
aI16
aI4
aI0
aI0
aI1
aI9
aI5
aI6
aI16
aI7
aI0
aI0
aI0
aI14
aI12
aI15
aI11
aI2
aI0
aI3
aa(lp8
I0
aI0
aI14
aI16
aI14
aI6
aI0
aI0
aI0
aI0
aI7
aI10
aI16
aI16
aI3
aI0
aI0
aI0
aI0
aI5
aI16
aI16
aI1
aI0
aI0
aI0
aI0
aI2
aI16
aI8
aI0
aI0
aI0
aI0
aI0
aI0
aI12
aI13
aI1
aI0
aI0
aI0
aI0
aI0
aI4
aI16
aI7
aI0
aI0
aI0
aI5
aI9
aI14
aI16
aI7
aI0
aI0
aI0
aI13
aI16
aI16
aI10
aI1
aI0
aI3
aa(lp9
I0
aI3
aI16
aI16
aI14
aI7
aI1
aI0
aI0
aI1
aI9
aI9
aI15
aI16
aI4
aI0
aI0
aI0
aI0
aI7
aI16
aI12
aI1
aI0
aI0
aI0
aI0
aI9
aI16
aI2
aI0
aI0
aI0
aI0
aI0
aI3
aI15
aI7
aI0
aI0
aI0
aI0
aI0
aI0
aI9
aI15
aI0
aI0
aI0
aI1
aI10
aI10
aI16
aI16
aI3
aI0
aI0
aI2
aI13
aI16
aI12
aI5
aI0
aI0
aI3
aa(lp10
I0
aI2
aI13
aI15
aI10
aI4
aI0
aI0
aI0
aI0
aI5
aI4
aI13
aI15
aI2
aI0
aI0
aI0
aI0
aI0
aI11
aI16
aI4
aI0
aI0
aI0
aI0
aI0
aI16
aI12
aI0
aI0
aI0
aI0
aI0
aI0
aI13
aI11
aI0
aI0
aI0
aI0
aI0
aI0
aI8
aI13
aI0
aI0
aI0
aI1
aI6
aI8
aI14
aI12
aI0
aI0
aI0
aI2
aI12
aI14
aI11
aI1
aI0
aI0
aI3
aa(lp11
I0
aI0
aI13
aI16
aI15
aI4
aI0
aI0
aI0
aI0
aI9
aI8
aI13
aI16
aI3
aI0
aI0
aI0
aI0
aI0
aI13
aI16
aI7
aI0
aI0
aI0
aI0
aI1
aI16
aI12
aI0
aI0
aI0
aI0
aI0
aI0
aI15
aI10
aI0
aI0
aI0
aI0
aI0
aI0
aI8
aI15
aI0
aI0
aI0
aI0
aI3
aI6
aI15
aI16
aI7
aI0
aI0
aI0
aI15
aI16
aI16
aI11
aI1
aI0
aI3
aa(lp12
I0
aI4
aI14
aI16
aI16
aI12
aI1
aI0
aI0
aI2
aI12
aI7
aI14
aI16
aI6
aI0
aI0
aI0
aI0
aI5
aI16
aI10
aI0
aI0
aI0
aI0
aI0
aI4
aI16
aI7
aI0
aI0
aI0
aI0
aI0
aI4
aI16
aI6
aI0
aI0
aI0
aI0
aI0
aI1
aI15
aI11
aI0
aI0
aI0
aI1
aI8
aI10
aI16
aI10
aI0
aI0
aI0
aI5
aI16
aI16
aI15
aI1
aI0
aI0
aI3
aa(lp13
I0
aI2
aI15
aI16
aI16
aI13
aI2
aI0
aI0
aI1
aI10
aI8
aI14
aI16
aI8
aI0
aI0
aI0
aI0
aI0
aI16
aI15
aI1
aI0
aI0
aI0
aI0
aI0
aI16
aI8
aI0
aI0
aI0
aI0
aI0
aI0
aI14
aI14
aI0
aI0
aI0
aI0
aI0
aI0
aI11
aI16
aI1
aI0
aI0
aI2
aI14
aI13
aI16
aI16
aI3
aI0
aI0
aI2
aI15
aI16
aI14
aI5
aI0
aI0
aI3
aa(lp14
I0
aI4
aI13
aI16
aI16
aI12
aI3
aI0
aI0
aI3
aI7
aI4
aI13
aI16
aI6
aI0
aI0
aI0
aI0
aI8
aI15
aI5
aI0
aI0
aI0
aI0
aI0
aI12
aI8
aI0
aI0
aI0
aI0
aI0
aI0
aI7
aI12
aI0
aI0
aI0
aI0
aI0
aI0
aI4
aI12
aI0
aI0
aI0
aI0
aI1
aI7
aI12
aI11
aI0
aI0
aI0
aI0
aI3
aI15
aI12
aI2
aI0
aI0
aI0
aI3
aa(lp15
I0
aI3
aI16
aI16
aI12
aI12
aI6
aI0
aI0
aI0
aI4
aI4
aI5
aI14
aI8
aI0
aI0
aI0
aI0
aI0
aI11
aI11
aI0
aI0
aI0
aI0
aI0
aI4
aI16
aI3
aI0
aI0
aI0
aI0
aI0
aI0
aI12
aI11
aI0
aI0
aI0
aI0
aI0
aI0
aI9
aI14
aI0
aI0
aI0
aI0
aI3
aI7
aI15
aI4
aI0
aI0
aI0
aI3
aI16
aI14
aI4
aI0
aI0
aI0
aI3
aa(lp16
I0
aI6
aI16
aI16
aI15
aI7
aI0
aI0
aI0
aI2
aI11
aI12
aI16
aI16
aI5
aI0
aI0
aI0
aI0
aI0
aI14
aI15
aI2
aI0
aI0
aI0
aI0
aI1
aI16
aI11
aI0
aI0
aI0
aI0
aI0
aI0
aI14
aI14
aI0
aI0
aI0
aI0
aI0
aI0
aI5
aI16
aI9
aI0
aI0
aI0
aI3
aI7
aI12
aI16
aI7
aI0
aI0
aI3
aI16
aI16
aI15
aI11
aI1
aI0
aI3
aa(lp17
I0
aI1
aI11
aI12
aI14
aI6
aI0
aI0
aI0
aI1
aI6
aI4
aI8
aI16
aI7
aI0
aI0
aI0
aI0
aI0
aI3
aI16
aI5
aI0
aI0
aI0
aI0
aI2
aI14
aI9
aI0
aI0
aI0
aI0
aI0
aI4
aI16
aI7
aI0
aI0
aI0
aI0
aI0
aI1
aI14
aI13
aI0
aI0
aI0
aI0
aI0
aI1
aI12
aI14
aI0
aI0
aI0
aI5
aI12
aI15
aI9
aI1
aI0
aI0
aI3
aa(lp18
I0
aI1
aI10
aI16
aI16
aI11
aI0
aI0
aI0
aI5
aI10
aI8
aI12
aI16
aI4
aI0
aI0
aI0
aI0
aI1
aI10
aI14
aI0
aI0
aI0
aI0
aI0
aI6
aI16
aI4
aI0
aI0
aI0
aI0
aI0
aI7
aI16
aI5
aI0
aI0
aI0
aI0
aI0
aI1
aI12
aI16
aI4
aI0
aI0
aI0
aI2
aI4
aI9
aI16
aI4
aI0
aI0
aI1
aI15
aI14
aI11
aI4
aI0
aI0
aI3
aa(lp19
I0
aI4
aI12
aI13
aI13
aI6
aI0
aI0
aI0
aI6
aI14
aI8
aI13
aI16
aI0
aI0
aI0
aI0
aI0
aI0
aI11
aI16
aI2
aI0
aI0
aI0
aI0
aI0
aI16
aI15
aI0
aI0
aI0
aI0
aI0
aI0
aI12
aI16
aI3
aI0
aI0
aI0
aI0
aI0
aI4
aI16
aI9
aI0
aI0
aI0
aI1
aI4
aI12
aI16
aI8
aI0
aI0
aI2
aI13
aI16
aI12
aI6
aI0
aI0
aI3
aa(lp20
I0
aI2
aI15
aI15
aI6
aI0
aI0
aI0
aI0
aI0
aI10
aI13
aI16
aI5
aI0
aI0
aI0
aI0
aI0
aI2
aI16
aI9
aI0
aI0
aI0
aI0
aI0
aI3
aI16
aI11
aI0
aI0
aI0
aI0
aI0
aI0
aI13
aI14
aI1
aI0
aI0
aI0
aI0
aI0
aI7
aI16
aI5
aI0
aI0
aI1
aI4
aI6
aI13
aI15
aI1
aI0
aI0
aI3
aI15
aI14
aI11
aI2
aI0
aI0
aI3
aa(lp21
I0
aI1
aI10
aI15
aI16
aI13
aI3
aI0
aI0
aI5
aI14
aI5
aI5
aI15
aI8
aI0
aI0
aI0
aI0
aI0
aI2
aI15
aI6
aI0
aI0
aI0
aI0
aI0
aI9
aI16
aI0
aI0
aI0
aI0
aI0
aI0
aI9
aI16
aI0
aI0
aI0
aI0
aI0
aI0
aI4
aI16
aI6
aI0
aI0
aI0
aI2
aI3
aI13
aI12
aI0
aI0
aI0
aI0
aI15
aI13
aI7
aI0
aI0
aI0
aI3
aa(lp22
I0
aI2
aI14
aI16
aI14
aI4
aI0
aI0
aI0
aI4
aI11
aI5
aI13
aI12
aI0
aI0
aI0
aI0
aI0
aI2
aI15
aI7
aI0
aI0
aI0
aI0
aI0
aI4
aI16
aI4
aI0
aI0
aI0
aI0
aI0
aI1
aI13
aI13
aI1
aI0
aI0
aI0
aI0
aI0
aI2
aI16
aI4
aI0
aI0
aI0
aI1
aI3
aI11
aI15
aI2
aI0
aI0
aI1
aI12
aI16
aI9
aI2
aI0
aI0
aI3
aa(lp23
I0
aI2
aI14
aI16
aI12
aI6
aI0
aI0
aI0
aI1
aI10
aI8
aI14
aI16
aI1
aI0
aI0
aI0
aI0
aI0
aI10
aI15
aI2
aI0
aI0
aI0
aI0
aI2
aI16
aI12
aI0
aI0
aI0
aI0
aI0
aI3
aI16
aI12
aI0
aI0
aI0
aI0
aI0
aI0
aI11
aI16
aI2
aI0
aI0
aI0
aI7
aI10
aI15
aI15
aI2
aI0
aI0
aI3
aI13
aI11
aI7
aI2
aI0
aI0
aI3
aa(lp24
I0
aI0
aI15
aI16
aI11
aI3
aI0
aI0
aI0
aI0
aI4
aI10
aI15
aI15
aI3
aI0
aI0
aI0
aI0
aI0
aI14
aI16
aI5
aI0
aI0
aI0
aI0
aI5
aI16
aI12
aI0
aI0
aI0
aI0
aI0
aI3
aI16
aI11
aI1
aI0
aI0
aI0
aI0
aI2
aI13
aI16
aI9
aI0
aI0
aI0
aI6
aI15
aI16
aI12
aI3
aI0
aI0
aI0
aI15
aI14
aI7
aI1
aI0
aI0
aI3
aa(lp25
I0
aI1
aI12
aI12
aI13
aI8
aI1
aI0
aI0
aI0
aI8
aI9
aI15
aI16
aI2
aI0
aI0
aI0
aI0
aI3
aI16
aI10
aI0
aI0
aI0
aI0
aI0
aI7
aI16
aI6
aI0
aI0
aI0
aI0
aI0
aI5
aI16
aI10
aI0
aI0
aI0
aI0
aI0
aI0
aI7
aI16
aI7
aI0
aI0
aI0
aI3
aI8
aI15
aI13
aI2
aI0
aI0
aI2
aI14
aI16
aI10
aI1
aI0
aI0
aI3
aa(lp26
I0
aI2
aI11
aI16
aI16
aI8
aI1
aI0
aI0
aI2
aI12
aI9
aI9
aI16
aI10
aI0
aI0
aI0
aI0
aI0
aI4
aI16
aI9
aI0
aI0
aI0
aI0
aI2
aI15
aI16
aI0
aI0
aI0
aI0
aI0
aI3
aI16
aI14
aI0
aI0
aI0
aI0
aI0
aI0
aI13
aI16
aI3
aI0
aI0
aI0
aI4
aI11
aI16
aI8
aI0
aI0
aI0
aI3
aI15
aI12
aI4
aI0
aI0
aI0
aI3
aa(lp27
I0
aI0
aI5
aI11
aI16
aI16
aI8
aI0
aI0
aI0
aI15
aI14
aI8
aI12
aI15
aI0
aI0
aI0
aI0
aI0
aI2
aI14
aI9
aI0
aI0
aI0
aI0
aI0
aI11
aI12
aI1
aI0
aI0
aI0
aI0
aI1
aI16
aI5
aI0
aI0
aI0
aI0
aI0
aI1
aI14
aI9
aI0
aI0
aI0
aI0
aI1
aI4
aI15
aI9
aI0
aI0
aI0
aI0
aI7
aI16
aI11
aI2
aI0
aI0
aI3
aa(lp28
I0
aI0
aI10
aI16
aI10
aI1
aI0
aI0
aI0
aI6
aI14
aI6
aI16
aI3
aI0
aI0
aI0
aI5
aI4
aI5
aI15
aI0
aI0
aI0
aI0
aI0
aI0
aI12
aI14
aI1
aI0
aI0
aI0
aI0
aI0
aI3
aI11
aI15
aI1
aI0
aI0
aI0
aI0
aI0
aI0
aI10
aI8
aI0
aI0
aI0
aI9
aI8
aI8
aI15
aI6
aI0
aI0
aI0
aI9
aI15
aI15
aI9
aI0
aI0
aI3
aa(lp29
I0
aI0
aI6
aI15
aI16
aI10
aI0
aI0
aI0
aI3
aI16
aI11
aI15
aI10
aI0
aI0
aI0
aI4
aI10
aI10
aI16
aI4
aI0
aI0
aI0
aI0
aI4
aI16
aI15
aI3
aI0
aI0
aI0
aI0
aI1
aI9
aI16
aI15
aI2
aI0
aI0
aI0
aI0
aI0
aI3
aI16
aI6
aI0
aI0
aI0
aI3
aI9
aI12
aI16
aI5
aI0
aI0
aI0
aI9
aI16
aI16
aI8
aI0
aI0
aI3
aa(lp30
I0
aI0
aI8
aI14
aI14
aI4
aI0
aI0
aI0
aI5
aI12
aI4
aI7
aI12
aI0
aI0
aI0
aI4
aI2
aI3
aI13
aI5
aI0
aI0
aI0
aI0
aI0
aI16
aI15
aI1
aI0
aI0
aI0
aI0
aI0
aI3
aI9
aI14
aI1
aI0
aI0
aI0
aI0
aI0
aI0
aI7
aI8
aI0
aI0
aI0
aI3
aI4
aI4
aI13
aI7
aI0
aI0
aI0
aI11
aI16
aI15
aI5
aI0
aI0
aI3
aa(lp31
I0
aI0
aI7
aI15
aI16
aI12
aI0
aI0
aI0
aI4
aI16
aI11
aI12
aI12
aI0
aI0
aI0
aI2
aI7
aI1
aI13
aI11
aI0
aI0
aI0
aI0
aI0
aI13
aI16
aI6
aI0
aI0
aI0
aI0
aI0
aI11
aI15
aI16
aI3
aI0
aI0
aI0
aI0
aI0
aI1
aI15
aI8
aI0
aI0
aI0
aI5
aI16
aI12
aI15
aI8
aI0
aI0
aI0
aI7
aI16
aI16
aI13
aI2
aI0
aI3
aa(lp32
I0
aI2
aI11
aI16
aI15
aI2
aI0
aI0
aI0
aI12
aI15
aI12
aI16
aI4
aI0
aI0
aI0
aI3
aI3
aI6
aI16
aI2
aI0
aI0
aI0
aI0
aI2
aI15
aI12
aI0
aI0
aI0
aI0
aI0
aI3
aI16
aI16
aI12
aI1
aI0
aI0
aI0
aI0
aI1
aI6
aI15
aI10
aI0
aI0
aI0
aI6
aI12
aI8
aI14
aI11
aI0
aI0
aI1
aI16
aI16
aI16
aI11
aI3
aI0
aI3
aa(lp33
I0
aI0
aI7
aI14
aI16
aI11
aI0
aI0
aI0
aI2
aI16
aI11
aI11
aI16
aI2
aI0
aI0
aI0
aI3
aI3
aI15
aI9
aI0
aI0
aI0
aI0
aI0
aI10
aI16
aI8
aI0
aI0
aI0
aI0
aI0
aI3
aI14
aI15
aI2
aI0
aI0
aI0
aI0
aI0
aI1
aI16
aI6
aI0
aI0
aI0
aI3
aI12
aI13
aI15
aI2
aI0
aI0
aI0
aI6
aI16
aI12
aI5
aI0
aI0
aI3
aa(lp34
I0
aI2
aI13
aI16
aI16
aI11
aI0
aI0
aI0
aI10
aI11
aI4
aI12
aI12
aI0
aI0
aI0
aI1
aI1
aI4
aI14
aI8
aI0
aI0
aI0
aI0
aI2
aI16
aI16
aI8
aI0
aI0
aI0
aI0
aI0
aI7
aI9
aI16
aI8
aI0
aI0
aI0
aI0
aI0
aI0
aI10
aI12
aI0
aI0
aI0
aI5
aI9
aI10
aI16
aI9
aI0
aI0
aI0
aI15
aI16
aI13
aI7
aI0
aI0
aI3
aa(lp35
I0
aI1
aI10
aI16
aI16
aI6
aI0
aI0
aI0
aI7
aI14
aI9
aI12
aI12
aI0
aI0
aI0
aI1
aI1
aI5
aI15
aI5
aI0
aI0
aI0
aI0
aI3
aI16
aI14
aI3
aI0
aI0
aI0
aI0
aI1
aI11
aI14
aI16
aI6
aI0
aI0
aI0
aI0
aI0
aI0
aI12
aI11
aI0
aI0
aI0
aI7
aI8
aI13
aI16
aI5
aI0
aI0
aI0
aI15
aI16
aI12
aI5
aI0
aI0
aI3
aa(lp36
I0
aI0
aI8
aI14
aI15
aI6
aI0
aI0
aI0
aI4
aI16
aI12
aI14
aI11
aI0
aI0
aI0
aI4
aI8
aI1
aI14
aI7
aI0
aI0
aI0
aI0
aI0
aI14
aI16
aI5
aI0
aI0
aI0
aI0
aI0
aI11
aI16
aI16
aI2
aI0
aI0
aI0
aI0
aI0
aI1
aI15
aI7
aI0
aI0
aI0
aI4
aI11
aI8
aI14
aI7
aI0
aI0
aI0
aI11
aI16
aI16
aI10
aI0
aI0
aI3
aa(lp37
I0
aI0
aI12
aI16
aI16
aI13
aI1
aI0
aI0
aI4
aI15
aI9
aI12
aI16
aI2
aI0
aI0
aI0
aI2
aI0
aI11
aI15
aI0
aI0
aI0
aI0
aI0
aI12
aI16
aI4
aI0
aI0
aI0
aI0
aI0
aI8
aI16
aI13
aI1
aI0
aI0
aI0
aI0
aI0
aI6
aI16
aI6
aI0
aI0
aI0
aI4
aI6
aI6
aI16
aI6
aI0
aI0
aI0
aI12
aI16
aI16
aI9
aI0
aI0
aI3
aa(lp38
I0
aI2
aI10
aI14
aI11
aI1
aI0
aI0
aI0
aI7
aI15
aI8
aI16
aI4
aI0
aI0
aI0
aI1
aI1
aI6
aI15
aI1
aI0
aI0
aI0
aI0
aI0
aI15
aI9
aI0
aI0
aI0
aI0
aI0
aI1
aI16
aI15
aI9
aI1
aI0
aI0
aI0
aI0
aI1
aI6
aI15
aI8
aI0
aI0
aI2
aI8
aI4
aI6
aI15
aI7
aI0
aI0
aI2
aI13
aI16
aI15
aI9
aI0
aI0
aI3
aa(lp39
I0
aI1
aI12
aI16
aI10
aI0
aI0
aI0
aI0
aI7
aI11
aI7
aI14
aI1
aI0
aI0
aI0
aI2
aI2
aI3
aI14
aI0
aI0
aI0
aI0
aI0
aI3
aI14
aI6
aI0
aI0
aI0
aI0
aI0
aI12
aI16
aI16
aI6
aI0
aI0
aI0
aI0
aI2
aI0
aI5
aI15
aI6
aI0
aI0
aI1
aI11
aI4
aI4
aI13
aI8
aI0
aI0
aI2
aI14
aI16
aI16
aI13
aI1
aI0
aI3
aa(lp40
I0
aI0
aI6
aI13
aI16
aI10
aI0
aI0
aI0
aI4
aI13
aI5
aI4
aI16
aI0
aI0
aI0
aI0
aI0
aI1
aI10
aI8
aI0
aI0
aI0
aI0
aI0
aI12
aI16
aI3
aI0
aI0
aI0
aI0
aI0
aI3
aI7
aI15
aI1
aI0
aI0
aI0
aI0
aI0
aI0
aI9
aI8
aI0
aI0
aI0
aI8
aI6
aI3
aI11
aI7
aI0
aI0
aI0
aI4
aI14
aI16
aI11
aI1
aI0
aI3
aa(lp41
I0
aI1
aI9
aI15
aI16
aI9
aI0
aI0
aI0
aI6
aI12
aI1
aI2
aI16
aI0
aI0
aI0
aI0
aI1
aI0
aI8
aI14
aI0
aI0
aI0
aI0
aI0
aI10
aI15
aI3
aI0
aI0
aI0
aI0
aI0
aI7
aI15
aI5
aI0
aI0
aI0
aI0
aI0
aI0
aI4
aI13
aI2
aI0
aI0
aI2
aI7
aI4
aI4
aI14
aI3
aI0
aI0
aI0
aI9
aI16
aI16
aI10
aI0
aI0
aI3
aa(lp42
I0
aI0
aI8
aI12
aI12
aI14
aI3
aI0
aI0
aI0
aI11
aI11
aI10
aI16
aI2
aI0
aI0
aI0
aI0
aI0
aI9
aI13
aI0
aI0
aI0
aI0
aI0
aI14
aI16
aI13
aI0
aI0
aI0
aI0
aI0
aI8
aI8
aI16
aI4
aI0
aI0
aI0
aI3
aI0
aI0
aI16
aI4
aI0
aI0
aI1
aI16
aI9
aI9
aI15
aI2
aI0
aI0
aI1
aI11
aI14
aI15
aI3
aI0
aI0
aI3
aa(lp43
I0
aI0
aI10
aI16
aI10
aI0
aI0
aI0
aI0
aI8
aI16
aI14
aI16
aI2
aI0
aI0
aI0
aI3
aI15
aI8
aI16
aI3
aI0
aI0
aI0
aI0
aI0
aI11
aI16
aI7
aI0
aI0
aI0
aI0
aI0
aI3
aI10
aI15
aI2
aI0
aI0
aI0
aI10
aI0
aI0
aI14
aI8
aI0
aI0
aI1
aI16
aI6
aI8
aI13
aI8
aI0
aI0
aI1
aI15
aI16
aI13
aI10
aI1
aI0
aI3
aa(lp44
I0
aI0
aI3
aI13
aI13
aI1
aI0
aI0
aI0
aI0
aI10
aI15
aI16
aI7
aI0
aI0
aI0
aI0
aI5
aI3
aI15
aI10
aI0
aI0
aI0
aI0
aI0
aI0
aI16
aI15
aI1
aI0
aI0
aI2
aI7
aI0
aI4
aI16
aI8
aI0
aI0
aI5
aI13
aI0
aI0
aI14
aI9
aI0
aI0
aI0
aI14
aI11
aI9
aI16
aI8
aI0
aI0
aI0
aI3
aI12
aI13
aI8
aI0
aI0
aI3
aa(lp45
I0
aI0
aI6
aI15
aI14
aI2
aI0
aI0
aI0
aI5
aI16
aI11
aI14
aI12
aI0
aI0
aI0
aI5
aI11
aI3
aI16
aI5
aI0
aI0
aI0
aI0
aI0
aI14
aI16
aI7
aI0
aI0
aI0
aI0
aI0
aI8
aI10
aI16
aI3
aI0
aI0
aI1
aI4
aI0
aI0
aI12
aI7
aI0
aI0
aI7
aI16
aI5
aI6
aI16
aI5
aI0
aI0
aI1
aI8
aI15
aI16
aI12
aI1
aI0
aI3
aa(lp46
I0
aI0
aI3
aI10
aI13
aI7
aI0
aI0
aI0
aI1
aI14
aI13
aI15
aI14
aI0
aI0
aI0
aI0
aI15
aI5
aI14
aI9
aI0
aI0
aI0
aI0
aI0
aI10
aI16
aI5
aI0
aI0
aI0
aI0
aI0
aI7
aI14
aI16
aI3
aI0
aI0
aI4
aI5
aI0
aI2
aI16
aI4
aI0
aI0
aI10
aI16
aI10
aI8
aI16
aI3
aI0
aI0
aI0
aI5
aI12
aI14
aI8
aI0
aI0
aI3
aa(lp47
I0
aI0
aI3
aI14
aI13
aI0
aI0
aI0
aI0
aI2
aI16
aI9
aI16
aI2
aI0
aI0
aI0
aI4
aI12
aI3
aI16
aI0
aI0
aI0
aI0
aI2
aI9
aI15
aI16
aI10
aI1
aI0
aI0
aI0
aI0
aI11
aI8
aI16
aI6
aI0
aI0
aI0
aI6
aI0
aI0
aI12
aI8
aI0
aI0
aI0
aI14
aI10
aI5
aI16
aI7
aI0
aI0
aI0
aI3
aI13
aI16
aI11
aI1
aI0
aI3
aa(lp48
I0
aI0
aI4
aI13
aI14
aI2
aI0
aI0
aI0
aI0
aI15
aI10
aI11
aI10
aI0
aI0
aI0
aI3
aI15
aI2
aI12
aI6
aI0
aI0
aI0
aI0
aI3
aI8
aI16
aI7
aI0
aI0
aI0
aI0
aI0
aI4
aI9
aI16
aI2
aI0
aI0
aI0
aI10
aI3
aI0
aI13
aI6
aI0
aI0
aI0
aI16
aI5
aI7
aI16
aI3
aI0
aI0
aI0
aI7
aI13
aI13
aI8
aI0
aI0
aI3
aa(lp49
I0
aI0
aI5
aI14
aI9
aI0
aI0
aI0
aI0
aI1
aI16
aI13
aI16
aI0
aI0
aI0
aI0
aI2
aI13
aI10
aI14
aI0
aI0
aI0
aI0
aI0
aI4
aI16
aI16
aI7
aI0
aI0
aI0
aI0
aI2
aI4
aI5
aI16
aI4
aI0
aI0
aI0
aI0
aI0
aI0
aI14
aI7
aI0
aI0
aI0
aI11
aI8
aI8
aI16
aI4
aI0
aI0
aI0
aI8
aI13
aI15
aI10
aI0
aI0
aI3
aa(lp50
I0
aI0
aI7
aI13
aI11
aI0
aI0
aI0
aI0
aI6
aI16
aI11
aI16
aI0
aI0
aI0
aI0
aI3
aI8
aI5
aI16
aI0
aI0
aI0
aI0
aI0
aI3
aI15
aI16
aI6
aI0
aI0
aI0
aI0
aI0
aI7
aI8
aI16
aI5
aI0
aI0
aI6
aI8
aI0
aI0
aI11
aI9
aI0
aI0
aI0
aI16
aI6
aI6
aI14
aI6
aI0
aI0
aI0
aI6
aI15
aI16
aI10
aI0
aI0
aI3
aa(lp51
I0
aI0
aI6
aI15
aI11
aI0
aI0
aI0
aI0
aI6
aI16
aI13
aI16
aI0
aI0
aI0
aI0
aI2
aI7
aI13
aI9
aI0
aI0
aI0
aI0
aI0
aI3
aI16
aI15
aI5
aI0
aI0
aI0
aI0
aI0
aI3
aI11
aI16
aI2
aI0
aI0
aI0
aI0
aI0
aI0
aI16
aI7
aI0
aI0
aI0
aI16
aI11
aI10
aI16
aI7
aI0
aI0
aI0
aI5
aI16
aI15
aI9
aI0
aI0
aI3
aa(lp52
I0
aI0
aI9
aI10
aI2
aI0
aI0
aI0
aI0
aI8
aI16
aI16
aI10
aI0
aI0
aI0
aI0
aI7
aI7
aI4
aI16
aI2
aI0
aI0
aI0
aI0
aI0
aI8
aI16
aI5
aI0
aI0
aI0
aI0
aI0
aI10
aI16
aI14
aI2
aI0
aI0
aI0
aI0
aI0
aI2
aI14
aI7
aI0
aI0
aI0
aI11
aI10
aI4
aI11
aI12
aI0
aI0
aI0
aI8
aI14
aI16
aI15
aI6
aI0
aI3
aa(lp53
I0
aI2
aI13
aI16
aI4
aI0
aI0
aI0
aI0
aI12
aI12
aI12
aI15
aI0
aI0
aI0
aI0
aI5
aI2
aI7
aI14
aI0
aI0
aI0
aI0
aI0
aI3
aI15
aI15
aI7
aI0
aI0
aI0
aI0
aI4
aI12
aI12
aI16
aI3
aI0
aI0
aI0
aI0
aI0
aI0
aI15
aI7
aI0
aI0
aI3
aI16
aI8
aI9
aI16
aI6
aI0
aI0
aI1
aI11
aI12
aI14
aI9
aI0
aI0
aI3
aa(lp54
I0
aI0
aI6
aI14
aI10
aI0
aI0
aI0
aI0
aI6
aI16
aI14
aI16
aI0
aI0
aI0
aI0
aI5
aI10
aI11
aI16
aI0
aI0
aI0
aI0
aI0
aI0
aI9
aI16
aI12
aI0
aI0
aI0
aI0
aI0
aI0
aI3
aI16
aI7
aI0
aI0
aI4
aI6
aI0
aI3
aI16
aI8
aI0
aI0
aI5
aI15
aI9
aI16
aI13
aI1
aI0
aI0
aI0
aI9
aI15
aI8
aI0
aI0
aI0
aI3
aa(lp55
I0
aI0
aI1
aI9
aI15
aI5
aI0
aI0
aI0
aI0
aI14
aI11
aI5
aI11
aI0
aI0
aI0
aI4
aI15
aI1
aI4
aI14
aI0
aI0
aI0
aI0
aI6
aI1
aI13
aI9
aI0
aI0
aI0
aI0
aI0
aI0
aI10
aI13
aI1
aI0
aI0
aI0
aI0
aI0
aI0
aI8
aI10
aI0
aI0
aI0
aI12
aI9
aI4
aI4
aI15
aI0
aI0
aI0
aI1
aI10
aI16
aI15
aI11
aI1
aI3
aa(lp56
I0
aI0
aI3
aI10
aI15
aI6
aI0
aI0
aI0
aI4
aI16
aI9
aI4
aI16
aI2
aI0
aI0
aI8
aI14
aI0
aI9
aI10
aI0
aI0
aI0
aI1
aI4
aI7
aI16
aI2
aI0
aI0
aI0
aI0
aI0
aI2
aI15
aI7
aI0
aI0
aI0
aI0
aI0
aI0
aI1
aI14
aI1
aI0
aI0
aI0
aI12
aI8
aI1
aI11
aI7
aI0
aI0
aI0
aI6
aI8
aI16
aI15
aI5
aI0
aI3
aa(lp57
I0
aI0
aI2
aI11
aI12
aI1
aI0
aI0
aI0
aI2
aI14
aI9
aI9
aI8
aI0
aI0
aI0
aI10
aI12
aI0
aI13
aI6
aI0
aI0
aI0
aI6
aI5
aI2
aI13
aI2
aI0
aI0
aI0
aI0
aI0
aI10
aI9
aI0
aI0
aI0
aI0
aI0
aI0
aI1
aI10
aI9
aI1
aI0
aI0
aI0
aI6
aI7
aI0
aI12
aI6
aI0
aI0
aI0
aI1
aI12
aI16
aI16
aI5
aI0
aI3
aa(lp58
I0
aI0
aI1
aI10
aI15
aI10
aI0
aI0
aI0
aI1
aI13
aI11
aI8
aI12
aI0
aI0
aI0
aI2
aI9
aI0
aI13
aI6
aI0
aI0
aI0
aI0
aI0
aI0
aI16
aI1
aI0
aI0
aI0
aI0
aI0
aI0
aI14
aI10
aI1
aI0
aI0
aI0
aI0
aI0
aI1
aI9
aI10
aI0
aI0
aI0
aI13
aI7
aI0
aI2
aI16
aI0
aI0
aI0
aI2
aI11
aI15
aI16
aI12
aI0
aI3
aa(lp59
I0
aI0
aI1
aI9
aI16
aI6
aI0
aI0
aI0
aI4
aI14
aI10
aI11
aI10
aI0
aI0
aI0
aI12
aI10
aI0
aI13
aI6
aI0
aI0
aI0
aI6
aI7
aI4
aI16
aI5
aI0
aI0
aI0
aI0
aI0
aI0
aI7
aI12
aI1
aI0
aI0
aI0
aI0
aI0
aI0
aI8
aI10
aI0
aI0
aI0
aI8
aI13
aI3
aI0
aI14
aI3
aI0
aI0
aI0
aI8
aI16
aI16
aI13
aI3
aI3
aa(lp60
I0
aI0
aI4
aI12
aI16
aI14
aI7
aI0
aI0
aI2
aI16
aI6
aI0
aI7
aI12
aI0
aI0
aI0
aI7
aI0
aI3
aI13
aI3
aI0
aI0
aI0
aI0
aI1
aI16
aI6
aI0
aI0
aI0
aI0
aI0
aI0
aI9
aI12
aI0
aI0
aI0
aI0
aI2
aI0
aI0
aI13
aI5
aI0
aI0
aI3
aI16
aI7
aI1
aI12
aI4
aI0
aI0
aI0
aI3
aI12
aI16
aI15
aI2
aI0
aI3
aa(lp61
I0
aI0
aI0
aI6
aI15
aI12
aI1
aI0
aI0
aI4
aI12
aI16
aI12
aI16
aI3
aI0
aI0
aI15
aI16
aI6
aI4
aI16
aI3
aI0
aI0
aI4
aI5
aI1
aI15
aI12
aI0
aI0
aI0
aI0
aI0
aI7
aI16
aI10
aI1
aI0
aI0
aI0
aI3
aI2
aI4
aI15
aI7
aI0
aI0
aI0
aI12
aI15
aI8
aI11
aI14
aI0
aI0
aI0
aI1
aI8
aI15
aI16
aI11
aI0
aI3
aa(lp62
I0
aI0
aI0
aI7
aI13
aI10
aI0
aI0
aI0
aI0
aI10
aI13
aI5
aI13
aI0
aI0
aI0
aI7
aI12
aI0
aI8
aI8
aI0
aI0
aI0
aI6
aI6
aI3
aI15
aI1
aI0
aI0
aI0
aI0
aI0
aI2
aI13
aI9
aI0
aI0
aI0
aI0
aI0
aI0
aI0
aI11
aI7
aI0
aI0
aI0
aI5
aI9
aI1
aI2
aI12
aI0
aI0
aI0
aI0
aI9
aI15
aI16
aI9
aI0
aI3
aa(lp63
I0
aI0
aI1
aI7
aI12
aI3
aI0
aI0
aI0
aI4
aI16
aI12
aI12
aI10
aI0
aI0
aI0
aI14
aI9
aI0
aI11
aI8
aI0
aI0
aI0
aI7
aI5
aI0
aI15
aI4
aI0
aI0
aI0
aI0
aI0
aI2
aI14
aI7
aI0
aI0
aI0
aI0
aI0
aI0
aI2
aI13
aI9
aI0
aI0
aI0
aI5
aI10
aI4
aI0
aI14
aI5
aI0
aI0
aI1
aI9
aI15
aI16
aI16
aI8
aI3
aa(lp64
I0
aI0
aI0
aI6
aI13
aI7
aI0
aI0
aI0
aI0
aI10
aI13
aI6
aI15
aI0
aI0
aI0
aI0
aI12
aI8
aI4
aI12
aI0
aI0
aI0
aI0
aI0
aI1
aI15
aI3
aI0
aI0
aI0
aI0
aI0
aI10
aI15
aI2
aI0
aI0
aI0
aI0
aI0
aI1
aI5
aI15
aI2
aI0
aI0
aI0
aI14
aI10
aI2
aI5
aI11
aI0
aI0
aI0
aI2
aI7
aI13
aI15
aI8
aI0
aI3
aa(lp65
I0
aI0
aI0
aI6
aI15
aI6
aI0
aI0
aI0
aI1
aI11
aI13
aI8
aI11
aI0
aI0
aI0
aI9
aI13
aI0
aI9
aI10
aI0
aI0
aI0
aI8
aI9
aI3
aI15
aI3
aI0
aI0
aI0
aI0
aI0
aI5
aI14
aI3
aI0
aI0
aI0
aI0
aI3
aI0
aI5
aI13
aI2
aI0
aI0
aI0
aI9
aI12
aI5
aI10
aI7
aI0
aI0
aI0
aI0
aI6
aI12
aI15
aI5
aI0
aI3
aa(lp66
I0
aI0
aI3
aI11
aI15
aI8
aI0
aI0
aI0
aI4
aI14
aI8
aI13
aI14
aI0
aI0
aI0
aI8
aI11
aI3
aI15
aI6
aI0
aI0
aI0
aI1
aI1
aI9
aI14
aI0
aI0
aI0
aI0
aI0
aI0
aI0
aI13
aI10
aI0
aI0
aI0
aI0
aI0
aI0
aI1
aI13
aI7
aI0
aI0
aI0
aI9
aI8
aI2
aI6
aI11
aI0
aI0
aI0
aI4
aI10
aI14
aI16
aI10
aI0
aI3
aa(lp67
I0
aI0
aI2
aI9
aI13
aI8
aI0
aI0
aI0
aI1
aI14
aI11
aI8
aI14
aI0
aI0
aI0
aI9
aI14
aI0
aI14
aI6
aI0
aI0
aI0
aI0
aI2
aI4
aI15
aI0
aI0
aI0
aI0
aI0
aI0
aI6
aI12
aI12
aI2
aI0
aI0
aI0
aI0
aI0
aI0
aI9
aI9
aI0
aI0
aI0
aI14
aI13
aI4
aI10
aI11
aI0
aI0
aI0
aI3
aI10
aI14
aI15
aI5
aI0
aI3
aa(lp68
I0
aI0
aI3
aI12
aI16
aI14
aI0
aI0
aI0
aI3
aI15
aI16
aI15
aI14
aI0
aI0
aI0
aI3
aI12
aI1
aI15
aI8
aI0
aI0
aI0
aI0
aI0
aI9
aI16
aI8
aI0
aI0
aI0
aI0
aI0
aI10
aI16
aI16
aI8
aI0
aI0
aI0
aI0
aI2
aI5
aI13
aI8
aI0
aI0
aI0
aI2
aI11
aI11
aI15
aI5
aI0
aI0
aI0
aI3
aI16
aI16
aI9
aI0
aI0
aI3
aa(lp69
I0
aI0
aI4
aI14
aI16
aI5
aI0
aI0
aI0
aI4
aI16
aI16
aI16
aI8
aI0
aI0
aI0
aI12
aI12
aI0
aI15
aI8
aI0
aI0
aI0
aI2
aI1
aI5
aI16
aI13
aI1
aI0
aI0
aI0
aI0
aI1
aI11
aI15
aI11
aI0
aI0
aI0
aI0
aI0
aI0
aI11
aI12
aI0
aI0
aI0
aI2
aI13
aI12
aI16
aI7
aI0
aI0
aI0
aI3
aI16
aI15
aI8
aI0
aI0
aI3
aa(lp70
I0
aI0
aI6
aI13
aI16
aI8
aI0
aI0
aI0
aI5
aI16
aI15
aI14
aI12
aI0
aI0
aI0
aI9
aI12
aI2
aI15
aI8
aI0
aI0
aI0
aI0
aI0
aI9
aI12
aI0
aI0
aI0
aI0
aI0
aI0
aI15
aI16
aI13
aI3
aI0
aI0
aI0
aI0
aI3
aI9
aI15
aI11
aI0
aI0
aI0
aI1
aI8
aI14
aI16
aI8
aI0
aI0
aI0
aI7
aI16
aI14
aI6
aI0
aI0
aI3
aa(lp71
I0
aI0
aI1
aI9
aI15
aI15
aI1
aI0
aI0
aI0
aI13
aI14
aI8
aI12
aI4
aI0
aI0
aI5
aI11
aI1
aI2
aI13
aI1
aI0
aI0
aI1
aI4
aI0
aI11
aI6
aI0
aI0
aI0
aI0
aI0
aI0
aI15
aI14
aI1
aI0
aI0
aI0
aI0
aI0
aI3
aI13
aI6
aI0
aI0
aI0
aI0
aI4
aI10
aI16
aI2
aI0
aI0
aI0
aI0
aI12
aI13
aI4
aI0
aI0
aI3
aa(lp72
I0
aI0
aI6
aI14
aI16
aI16
aI2
aI0
aI0
aI5
aI16
aI13
aI11
aI16
aI0
aI0
aI0
aI0
aI7
aI2
aI15
aI12
aI0
aI0
aI0
aI0
aI0
aI7
aI16
aI13
aI1
aI0
aI0
aI0
aI0
aI0
aI6
aI15
aI10
aI0
aI0
aI0
aI0
aI0
aI0
aI15
aI9
aI0
aI0
aI0
aI3
aI11
aI8
aI16
aI6
aI0
aI0
aI0
aI7
aI16
aI16
aI8
aI0
aI0
aI3
aa(lp73
I0
aI1
aI7
aI13
aI16
aI11
aI0
aI0
aI0
aI11
aI16
aI13
aI15
aI16
aI0
aI0
aI0
aI3
aI8
aI2
aI16
aI9
aI0
aI0
aI0
aI0
aI0
aI8
aI16
aI4
aI0
aI0
aI0
aI0
aI0
aI5
aI16
aI16
aI5
aI0
aI0
aI0
aI0
aI0
aI3
aI14
aI11
aI0
aI0
aI0
aI3
aI8
aI14
aI16
aI8
aI0
aI0
aI0
aI7
aI16
aI12
aI7
aI0
aI0
aI3
aa(lp74
I0
aI0
aI4
aI13
aI16
aI11
aI0
aI0
aI0
aI9
aI16
aI9
aI10
aI15
aI0
aI0
aI0
aI5
aI4
aI0
aI12
aI11
aI0
aI0
aI0
aI0
aI0
aI5
aI16
aI12
aI1
aI0
aI0
aI0
aI0
aI1
aI9
aI15
aI8
aI0
aI0
aI0
aI0
aI0
aI0
aI8
aI12
aI0
aI0
aI0
aI1
aI6
aI8
aI16
aI8
aI0
aI0
aI0
aI5
aI16
aI15
aI9
aI1
aI0
aI3
aa(lp75
I0
aI1
aI11
aI15
aI16
aI9
aI0
aI0
aI0
aI3
aI16
aI10
aI10
aI16
aI1
aI0
aI0
aI0
aI2
aI1
aI14
aI11
aI0
aI0
aI0
aI0
aI0
aI14
aI16
aI7
aI0
aI0
aI0
aI0
aI0
aI13
aI16
aI16
aI5
aI0
aI0
aI0
aI0
aI0
aI2
aI16
aI8
aI0
aI0
aI0
aI6
aI8
aI13
aI15
aI5
aI0
aI0
aI0
aI15
aI16
aI12
aI5
aI0
aI0
aI3
aa(lp76
I0
aI1
aI5
aI12
aI16
aI14
aI2
aI0
aI0
aI8
aI16
aI16
aI16
aI16
aI3
aI0
aI0
aI6
aI9
aI2
aI12
aI12
aI0
aI0
aI0
aI0
aI0
aI5
aI16
aI8
aI0
aI0
aI0
aI0
aI0
aI1
aI13
aI16
aI9
aI0
aI0
aI0
aI0
aI0
aI1
aI14
aI10
aI0
aI0
aI0
aI1
aI11
aI15
aI15
aI5
aI0
aI0
aI0
aI6
aI16
aI12
aI5
aI0
aI0
aI3
aa(lp77
I0
aI0
aI6
aI9
aI11
aI9
aI0
aI0
aI0
aI13
aI16
aI15
aI15
aI15
aI0
aI0
aI0
aI4
aI5
aI2
aI15
aI6
aI0
aI0
aI0
aI0
aI0
aI3
aI15
aI6
aI0
aI0
aI0
aI0
aI0
aI0
aI6
aI15
aI6
aI0
aI0
aI0
aI0
aI0
aI0
aI5
aI12
aI0
aI0
aI0
aI0
aI5
aI13
aI16
aI9
aI0
aI0
aI0
aI3
aI13
aI12
aI7
aI1
aI0
aI3
aa(lp78
I0
aI0
aI7
aI15
aI12
aI0
aI0
aI0
aI0
aI3
aI15
aI8
aI14
aI2
aI0
aI0
aI0
aI0
aI5
aI2
aI11
aI0
aI0
aI0
aI0
aI0
aI1
aI11
aI8
aI2
aI0
aI0
aI0
aI0
aI8
aI16
aI16
aI15
aI4
aI0
aI0
aI0
aI1
aI4
aI2
aI12
aI6
aI0
aI0
aI0
aI2
aI4
aI13
aI12
aI0
aI0
aI0
aI0
aI5
aI13
aI9
aI1
aI0
aI0
aI3
aa(lp79
I0
aI0
aI6
aI14
aI11
aI0
aI0
aI0
aI0
aI3
aI16
aI9
aI16
aI0
aI0
aI0
aI0
aI3
aI7
aI5
aI12
aI0
aI0
aI0
aI0
aI0
aI1
aI14
aI8
aI2
aI0
aI0
aI0
aI0
aI2
aI16
aI16
aI16
aI4
aI0
aI0
aI0
aI0
aI0
aI0
aI11
aI8
aI0
aI0
aI0
aI0
aI4
aI10
aI15
aI2
aI0
aI0
aI0
aI5
aI16
aI12
aI4
aI0
aI0
aI3
aa(lp80
I0
aI1
aI10
aI16
aI16
aI8
aI0
aI0
aI0
aI10
aI16
aI13
aI16
aI12
aI0
aI0
aI0
aI1
aI3
aI3
aI16
aI9
aI0
aI0
aI0
aI0
aI0
aI13
aI14
aI1
aI0
aI0
aI0
aI0
aI2
aI16
aI16
aI12
aI3
aI0
aI0
aI0
aI0
aI5
aI11
aI16
aI11
aI0
aI0
aI0
aI2
aI7
aI14
aI16
aI6
aI0
aI0
aI0
aI11
aI16
aI13
aI5
aI0
aI0
aI3
aa(lp81
I0
aI1
aI13
aI16
aI12
aI1
aI0
aI0
aI0
aI1
aI9
aI5
aI16
aI1
aI0
aI0
aI0
aI0
aI0
aI9
aI5
aI0
aI0
aI0
aI0
aI0
aI9
aI10
aI0
aI0
aI0
aI0
aI0
aI0
aI8
aI15
aI16
aI11
aI1
aI0
aI0
aI0
aI0
aI0
aI2
aI12
aI7
aI0
aI0
aI0
aI2
aI4
aI6
aI15
aI3
aI0
aI0
aI0
aI14
aI16
aI11
aI5
aI0
aI0
aI3
aa(lp82
I0
aI1
aI12
aI16
aI13
aI2
aI0
aI0
aI0
aI5
aI14
aI6
aI13
aI12
aI0
aI0
aI0
aI0
aI0
aI3
aI15
aI7
aI0
aI0
aI0
aI0
aI2
aI16
aI8
aI0
aI0
aI0
aI0
aI0
aI1
aI12
aI16
aI11
aI1
aI0
aI0
aI0
aI0
aI0
aI5
aI15
aI7
aI0
aI0
aI0
aI6
aI0
aI4
aI14
aI7
aI0
aI0
aI0
aI16
aI16
aI15
aI8
aI1
aI0
aI3
aa(lp83
I0
aI2
aI11
aI14
aI10
aI1
aI0
aI0
aI0
aI6
aI12
aI8
aI15
aI10
aI0
aI0
aI0
aI0
aI0
aI0
aI10
aI11
aI0
aI0
aI0
aI0
aI0
aI8
aI14
aI2
aI0
aI0
aI0
aI0
aI0
aI7
aI16
aI15
aI1
aI0
aI0
aI0
aI0
aI0
aI2
aI13
aI8
aI0
aI0
aI2
aI5
aI1
aI2
aI12
aI7
aI0
aI0
aI1
aI12
aI16
aI16
aI10
aI0
aI0
aI3
aa(lp84
I0
aI1
aI11
aI16
aI13
aI4
aI0
aI0
aI0
aI1
aI15
aI7
aI14
aI14
aI1
aI0
aI0
aI0
aI0
aI0
aI6
aI15
aI1
aI0
aI0
aI0
aI1
aI10
aI15
aI6
aI0
aI0
aI0
aI0
aI5
aI15
aI14
aI7
aI0
aI0
aI0
aI0
aI1
aI0
aI5
aI16
aI3
aI0
aI0
aI5
aI11
aI1
aI1
aI16
aI4
aI0
aI0
aI0
aI10
aI15
aI16
aI10
aI1
aI0
aI3
aa(lp85
I0
aI1
aI8
aI14
aI15
aI2
aI0
aI0
aI0
aI2
aI13
aI9
aI14
aI8
aI0
aI0
aI0
aI0
aI0
aI0
aI12
aI9
aI0
aI0
aI0
aI0
aI2
aI13
aI13
aI0
aI0
aI0
aI0
aI0
aI3
aI15
aI16
aI6
aI0
aI0
aI0
aI1
aI1
aI0
aI12
aI14
aI0
aI0
aI0
aI5
aI13
aI5
aI6
aI16
aI1
aI0
aI0
aI1
aI9
aI12
aI13
aI9
aI0
aI0
aI3
aa(lp86
I0
aI0
aI15
aI16
aI13
aI6
aI0
aI0
aI0
aI0
aI12
aI12
aI14
aI13
aI0
aI0
aI0
aI0
aI0
aI0
aI11
aI9
aI0
aI0
aI0
aI0
aI1
aI11
aI15
aI2
aI0
aI0
aI0
aI0
aI8
aI16
aI16
aI12
aI1
aI0
aI0
aI1
aI8
aI4
aI9
aI16
aI3
aI0
aI0
aI5
aI14
aI7
aI10
aI15
aI1
aI0
aI0
aI2
aI12
aI16
aI14
aI6
aI0
aI0
aI3
aa(lp87
I0
aI0
aI7
aI16
aI16
aI16
aI10
aI0
aI0
aI0
aI10
aI10
aI5
aI12
aI16
aI2
aI0
aI0
aI0
aI0
aI7
aI15
aI6
aI0
aI0
aI0
aI1
aI13
aI16
aI13
aI0
aI0
aI0
aI0
aI0
aI7
aI12
aI16
aI6
aI0
aI0
aI0
aI0
aI0
aI2
aI16
aI6
aI0
aI0
aI0
aI2
aI9
aI11
aI14
aI1
aI0
aI0
aI0
aI5
aI16
aI15
aI5
aI0
aI0
aI3
aa(lp88
I0
aI0
aI8
aI16
aI16
aI16
aI3
aI0
aI0
aI0
aI6
aI8
aI8
aI15
aI10
aI0
aI0
aI0
aI0
aI0
aI7
aI16
aI5
aI0
aI0
aI0
aI1
aI10
aI16
aI9
aI0
aI0
aI0
aI0
aI0
aI15
aI16
aI12
aI0
aI0
aI0
aI0
aI0
aI1
aI13
aI16
aI5
aI0
aI0
aI0
aI7
aI8
aI11
aI16
aI2
aI0
aI0
aI0
aI6
aI16
aI16
aI11
aI0
aI0
aI3
aa(lp89
I0
aI0
aI6
aI12
aI16
aI10
aI0
aI0
aI0
aI4
aI15
aI8
aI12
aI14
aI0
aI0
aI0
aI0
aI0
aI0
aI13
aI8
aI0
aI0
aI0
aI0
aI0
aI6
aI14
aI1
aI0
aI0
aI0
aI0
aI0
aI5
aI15
aI8
aI0
aI0
aI0
aI0
aI0
aI0
aI2
aI15
aI5
aI0
aI0
aI0
aI1
aI4
aI5
aI15
aI8
aI0
aI0
aI0
aI5
aI16
aI14
aI9
aI1
aI0
aI3
aa(lp90
I0
aI1
aI11
aI14
aI9
aI1
aI0
aI0
aI0
aI3
aI16
aI8
aI16
aI4
aI0
aI0
aI0
aI0
aI0
aI3
aI16
aI3
aI0
aI0
aI0
aI0
aI1
aI14
aI13
aI0
aI0
aI0
aI0
aI0
aI0
aI7
aI14
aI10
aI0
aI0
aI0
aI0
aI0
aI0
aI3
aI16
aI4
aI0
aI0
aI1
aI3
aI1
aI8
aI16
aI4
aI0
aI0
aI3
aI10
aI16
aI16
aI8
aI0
aI0
aI3
aa(lp91
I0
aI0
aI10
aI16
aI16
aI4
aI0
aI0
aI0
aI0
aI9
aI8
aI13
aI10
aI0
aI0
aI0
aI0
aI0
aI4
aI15
aI6
aI0
aI0
aI0
aI0
aI0
aI13
aI16
aI7
aI0
aI0
aI0
aI0
aI0
aI5
aI13
aI16
aI1
aI0
aI0
aI0
aI0
aI0
aI0
aI16
aI4
aI0
aI0
aI0
aI7
aI3
aI5
aI16
aI2
aI0
aI0
aI0
aI11
aI16
aI16
aI10
aI0
aI0
aI3
aa(lp92
I0
aI0
aI7
aI15
aI15
aI2
aI0
aI0
aI0
aI0
aI13
aI6
aI12
aI6
aI0
aI0
aI0
aI0
aI0
aI0
aI15
aI2
aI0
aI0
aI0
aI0
aI0
aI13
aI10
aI0
aI0
aI0
aI0
aI0
aI0
aI8
aI15
aI12
aI0
aI0
aI0
aI3
aI7
aI0
aI2
aI15
aI1
aI0
aI0
aI2
aI15
aI6
aI6
aI16
aI1
aI0
aI0
aI0
aI4
aI15
aI16
aI7
aI0
aI0
aI3
aa(lp93
I0
aI0
aI6
aI12
aI13
aI12
aI0
aI0
aI0
aI0
aI14
aI12
aI7
aI16
aI1
aI0
aI0
aI0
aI6
aI6
aI14
aI9
aI0
aI0
aI0
aI0
aI0
aI14
aI11
aI1
aI0
aI0
aI0
aI0
aI0
aI5
aI16
aI5
aI0
aI0
aI0
aI0
aI0
aI0
aI6
aI14
aI1
aI0
aI0
aI0
aI10
aI8
aI3
aI16
aI1
aI0
aI0
aI0
aI4
aI14
aI16
aI12
aI0
aI0
aI3
aa(lp94
I0
aI0
aI6
aI13
aI12
aI2
aI0
aI0
aI0
aI0
aI7
aI7
aI10
aI12
aI0
aI0
aI0
aI0
aI0
aI1
aI12
aI9
aI0
aI0
aI0
aI0
aI0
aI7
aI16
aI7
aI0
aI0
aI0
aI0
aI0
aI0
aI5
aI14
aI1
aI0
aI0
aI1
aI7
aI0
aI0
aI7
aI11
aI0
aI0
aI1
aI16
aI4
aI0
aI9
aI11
aI0
aI0
aI0
aI5
aI13
aI12
aI16
aI3
aI0
aI3
aa(lp95
I0
aI0
aI9
aI16
aI10
aI1
aI0
aI0
aI0
aI0
aI8
aI3
aI16
aI4
aI0
aI0
aI0
aI0
aI0
aI5
aI14
aI2
aI0
aI0
aI0
aI0
aI2
aI16
aI15
aI7
aI0
aI0
aI0
aI0
aI0
aI0
aI3
aI15
aI2
aI0
aI0
aI4
aI6
aI0
aI0
aI13
aI7
aI0
aI0
aI6
aI13
aI1
aI5
aI16
aI3
aI0
aI0
aI0
aI10
aI16
aI15
aI5
aI0
aI0
aI3
aa(lp96
I0
aI2
aI13
aI16
aI15
aI1
aI0
aI0
aI0
aI7
aI13
aI10
aI16
aI4
aI0
aI0
aI0
aI0
aI0
aI8
aI16
aI2
aI0
aI0
aI0
aI0
aI8
aI16
aI16
aI10
aI0
aI0
aI0
aI0
aI1
aI4
aI10
aI16
aI8
aI0
aI0
aI0
aI0
aI0
aI0
aI16
aI9
aI0
aI0
aI2
aI12
aI6
aI6
aI16
aI6
aI0
aI0
aI1
aI15
aI16
aI16
aI9
aI1
aI0
aI3
aa(lp97
I0
aI1
aI10
aI16
aI15
aI1
aI0
aI0
aI0
aI3
aI15
aI10
aI16
aI4
aI0
aI0
aI0
aI0
aI1
aI11
aI15
aI0
aI0
aI0
aI0
aI0
aI12
aI16
aI15
aI3
aI0
aI0
aI0
aI0
aI0
aI1
aI11
aI15
aI1
aI0
aI0
aI8
aI3
aI0
aI3
aI16
aI7
aI0
aI0
aI13
aI15
aI6
aI8
aI16
aI6
aI0
aI0
aI0
aI12
aI16
aI16
aI7
aI0
aI0
aI3
aa(lp98
I0
aI0
aI8
aI15
aI11
aI1
aI0
aI0
aI0
aI0
aI10
aI4
aI10
aI6
aI0
aI0
aI0
aI0
aI0
aI1
aI13
aI6
aI0
aI0
aI0
aI0
aI0
aI15
aI16
aI2
aI0
aI0
aI0
aI0
aI0
aI4
aI8
aI15
aI1
aI0
aI0
aI1
aI1
aI0
aI0
aI9
aI7
aI0
aI0
aI4
aI13
aI5
aI3
aI10
aI8
aI0
aI0
aI0
aI7
aI14
aI16
aI15
aI2
aI0
aI3
aa(lp99
I0
aI0
aI8
aI12
aI13
aI5
aI0
aI0
aI0
aI4
aI13
aI4
aI9
aI11
aI0
aI0
aI0
aI0
aI0
aI6
aI13
aI4
aI0
aI0
aI0
aI0
aI0
aI10
aI15
aI4
aI0
aI0
aI0
aI0
aI0
aI0
aI4
aI15
aI2
aI0
aI0
aI7
aI8
aI0
aI0
aI12
aI7
aI0
aI0
aI8
aI9
aI1
aI3
aI16
aI3
aI0
aI0
aI0
aI10
aI16
aI16
aI6
aI0
aI0
aI3
aa(lp100
I0
aI0
aI1
aI14
aI16
aI8
aI0
aI0
aI0
aI0
aI2
aI10
aI5
aI14
aI0
aI0
aI0
aI0
aI0
aI2
aI7
aI15
aI0
aI0
aI0
aI0
aI0
aI6
aI16
aI10
aI0
aI0
aI0
aI0
aI0
aI0
aI3
aI14
aI4
aI0
aI0
aI0
aI13
aI0
aI0
aI4
aI12
aI0
aI0
aI0
aI13
aI6
aI4
aI8
aI13
aI0
aI0
aI0
aI0
aI12
aI16
aI15
aI6
aI0
aI3
aa(lp101
I0
aI0
aI7
aI16
aI12
aI1
aI0
aI0
aI0
aI0
aI16
aI11
aI16
aI8
aI0
aI0
aI0
aI0
aI3
aI9
aI16
aI6
aI0
aI0
aI0
aI0
aI0
aI13
aI16
aI15
aI1
aI0
aI0
aI0
aI1
aI2
aI5
aI14
aI8
aI0
aI0
aI5
aI14
aI0
aI0
aI9
aI15
aI0
aI0
aI4
aI16
aI7
aI6
aI13
aI14
aI0
aI0
aI0
aI7
aI16
aI16
aI16
aI4
aI0
aI3
aa(lp102
I0
aI0
aI3
aI15
aI16
aI12
aI0
aI0
aI0
aI0
aI6
aI16
aI6
aI14
aI6
aI0
aI0
aI0
aI0
aI3
aI1
aI15
aI6
aI0
aI0
aI0
aI0
aI1
aI14
aI16
aI3
aI0
aI0
aI5
aI8
aI2
aI13
aI16
aI3
aI0
aI0
aI5
aI16
aI0
aI0
aI9
aI13
aI0
aI0
aI1
aI15
aI11
aI8
aI12
aI16
aI1
aI0
aI0
aI3
aI14
aI16
aI16
aI9
aI0
aI3
aa(lp103
I0
aI0
aI6
aI14
aI13
aI3
aI0
aI0
aI0
aI0
aI12
aI2
aI3
aI14
aI0
aI0
aI0
aI0
aI0
aI0
aI8
aI13
aI0
aI0
aI0
aI0
aI0
aI12
aI16
aI3
aI0
aI0
aI0
aI0
aI0
aI0
aI8
aI13
aI1
aI0
aI0
aI1
aI7
aI0
aI0
aI7
aI11
aI0
aI0
aI3
aI13
aI2
aI0
aI7
aI13
aI0
aI0
aI0
aI5
aI14
aI14
aI15
aI6
aI0
aI3
aa(lp104
I0
aI0
aI2
aI15
aI16
aI9
aI0
aI0
aI0
aI0
aI3
aI13
aI11
aI16
aI0
aI0
aI0
aI0
aI0
aI2
aI13
aI12
aI0
aI0
aI0
aI0
aI0
aI9
aI16
aI11
aI0
aI0
aI0
aI3
aI3
aI1
aI6
aI15
aI8
aI0
aI0
aI11
aI13
aI0
aI0
aI10
aI12
aI0
aI0
aI3
aI16
aI12
aI7
aI16
aI8
aI0
aI0
aI0
aI3
aI15
aI16
aI10
aI0
aI0
aI3
aa(lp105
I0
aI0
aI9
aI15
aI14
aI2
aI0
aI0
aI0
aI0
aI9
aI3
aI9
aI8
aI0
aI0
aI0
aI0
aI0
aI0
aI6
aI10
aI0
aI0
aI0
aI0
aI0
aI10
aI15
aI2
aI0
aI0
aI0
aI0
aI2
aI10
aI11
aI15
aI2
aI0
aI0
aI3
aI1
aI0
aI0
aI14
aI4
aI0
aI0
aI10
aI13
aI7
aI2
aI12
aI4
aI0
aI0
aI0
aI7
aI14
aI16
aI10
aI0
aI0
aI3
aa(lp106
I0
aI0
aI14
aI16
aI15
aI3
aI0
aI0
aI0
aI0
aI6
aI5
aI13
aI8
aI0
aI0
aI0
aI0
aI0
aI8
aI16
aI5
aI0
aI0
aI0
aI0
aI0
aI11
aI16
aI10
aI0
aI0
aI0
aI1
aI3
aI0
aI4
aI15
aI8
aI0
aI0
aI6
aI15
aI0
aI0
aI9
aI15
aI0
aI0
aI5
aI16
aI5
aI6
aI14
aI14
aI0
aI0
aI1
aI11
aI16
aI16
aI14
aI2
aI0
aI3
aa(lp107
I0
aI0
aI6
aI12
aI13
aI9
aI0
aI0
aI0
aI7
aI14
aI6
aI7
aI16
aI3
aI0
aI0
aI4
aI6
aI5
aI14
aI6
aI0
aI0
aI0
aI0
aI0
aI12
aI14
aI4
aI0
aI0
aI0
aI0
aI0
aI0
aI3
aI14
aI2
aI0
aI0
aI0
aI0
aI0
aI0
aI9
aI7
aI0
aI0
aI0
aI3
aI1
aI0
aI9
aI8
aI0
aI0
aI0
aI5
aI14
aI12
aI13
aI2
aI0
aI3
aa(lp108
I0
aI0
aI7
aI13
aI16
aI5
aI0
aI0
aI0
aI6
aI15
aI7
aI6
aI14
aI0
aI0
aI0
aI9
aI5
aI1
aI10
aI9
aI0
aI0
aI0
aI0
aI0
aI8
aI16
aI5
aI0
aI0
aI0
aI0
aI0
aI1
aI6
aI15
aI1
aI0
aI0
aI0
aI0
aI0
aI0
aI1
aI12
aI0
aI0
aI0
aI4
aI5
aI2
aI5
aI13
aI0
aI0
aI0
aI6
aI12
aI16
aI14
aI5
aI0
aI3
aa(lp109
I0
aI0
aI6
aI14
aI16
aI11
aI0
aI0
aI0
aI6
aI14
aI7
aI4
aI16
aI4
aI0
aI0
aI7
aI7
aI0
aI5
aI16
aI2
aI0
aI0
aI0
aI0
aI14
aI16
aI5
aI0
aI0
aI0
aI0
aI0
aI4
aI13
aI11
aI0
aI0
aI0
aI0
aI0
aI0
aI0
aI11
aI8
aI0
aI0
aI0
aI0
aI2
aI4
aI10
aI12
aI0
aI0
aI0
aI9
aI16
aI16
aI11
aI3
aI0
aI3
aa(lp110
I0
aI0
aI7
aI14
aI15
aI7
aI0
aI0
aI0
aI6
aI16
aI8
aI7
aI16
aI4
aI0
aI0
aI11
aI6
aI1
aI10
aI14
aI1
aI0
aI0
aI1
aI0
aI4
aI16
aI6
aI0
aI0
aI0
aI0
aI0
aI2
aI11
aI13
aI1
aI0
aI0
aI0
aI0
aI0
aI0
aI11
aI7
aI0
aI0
aI0
aI3
aI4
aI8
aI14
aI3
aI0
aI0
aI0
aI10
aI13
aI12
aI4
aI0
aI0
aI3
aa(lp111
I0
aI0
aI11
aI16
aI16
aI10
aI0
aI0
aI1
aI14
aI16
aI9
aI11
aI16
aI1
aI0
aI1
aI14
aI3
aI0
aI12
aI14
aI0
aI0
aI0
aI0
aI0
aI6
aI16
aI7
aI0
aI0
aI0
aI0
aI0
aI0
aI8
aI16
aI5
aI0
aI0
aI0
aI0
aI0
aI0
aI12
aI10
aI0
aI0
aI0
aI2
aI4
aI5
aI14
aI13
aI0
aI0
aI0
aI11
aI16
aI16
aI16
aI4
aI0
aI3
aa(lp112
I0
aI0
aI9
aI16
aI16
aI15
aI4
aI0
aI0
aI8
aI16
aI9
aI7
aI14
aI11
aI0
aI0
aI5
aI5
aI1
aI13
aI15
aI1
aI0
aI0
aI0
aI0
aI10
aI16
aI7
aI0
aI0
aI0
aI0
aI0
aI1
aI11
aI16
aI4
aI0
aI0
aI0
aI0
aI0
aI0
aI14
aI8
aI0
aI0
aI0
aI3
aI4
aI6
aI16
aI4
aI0
aI0
aI0
aI14
aI16
aI16
aI8
aI0
aI0
aI3
aa(lp113
I0
aI1
aI13
aI16
aI16
aI10
aI0
aI0
aI0
aI8
aI15
aI8
aI15
aI15
aI0
aI0
aI0
aI3
aI8
aI5
aI16
aI6
aI0
aI0
aI0
aI0
aI0
aI4
aI16
aI9
aI0
aI0
aI0
aI0
aI0
aI0
aI6
aI16
aI5
aI0
aI0
aI0
aI0
aI0
aI0
aI5
aI16
aI0
aI0
aI0
aI8
aI6
aI6
aI13
aI12
aI0
aI0
aI1
aI15
aI16
aI16
aI14
aI3
aI0
aI3
aa(lp114
I0
aI1
aI12
aI16
aI16
aI9
aI0
aI0
aI0
aI11
aI15
aI9
aI7
aI16
aI3
aI0
aI0
aI13
aI3
aI1
aI10
aI15
aI1
aI0
aI0
aI0
aI0
aI11
aI16
aI8
aI0
aI0
aI0
aI0
aI0
aI5
aI15
aI16
aI5
aI0
aI0
aI0
aI0
aI0
aI0
aI10
aI13
aI0
aI0
aI0
aI7
aI4
aI8
aI15
aI9
aI0
aI0
aI0
aI13
aI16
aI16
aI12
aI1
aI0
aI3
aa(lp115
I0
aI1
aI10
aI14
aI13
aI4
aI0
aI0
aI0
aI12
aI11
aI5
aI8
aI14
aI0
aI0
aI0
aI8
aI3
aI2
aI12
aI8
aI0
aI0
aI0
aI0
aI3
aI15
aI15
aI4
aI0
aI0
aI0
aI0
aI1
aI4
aI7
aI14
aI5
aI0
aI0
aI0
aI0
aI0
aI0
aI7
aI12
aI0
aI0
aI0
aI0
aI0
aI1
aI11
aI11
aI0
aI0
aI0
aI12
aI16
aI16
aI9
aI1
aI0
aI3
aa(lp116
I0
aI1
aI10
aI15
aI16
aI11
aI0
aI0
aI0
aI8
aI11
aI4
aI7
aI14
aI0
aI0
aI0
aI7
aI1
aI2
aI13
aI7
aI0
aI0
aI0
aI0
aI0
aI10
aI16
aI6
aI0
aI0
aI0
aI0
aI0
aI0
aI1
aI14
aI5
aI0
aI0
aI0
aI0
aI0
aI0
aI7
aI9
aI0
aI0
aI0
aI2
aI0
aI3
aI11
aI7
aI0
aI0
aI0
aI15
aI16
aI16
aI7
aI0
aI0
aI3
aa(lp117
I0
aI0
aI3
aI11
aI14
aI12
aI3
aI0
aI0
aI2
aI13
aI10
aI4
aI10
aI12
aI0
aI0
aI2
aI11
aI2
aI0
aI9
aI9
aI0
aI0
aI0
aI0
aI3
aI10
aI10
aI1
aI0
aI0
aI0
aI7
aI16
aI16
aI2
aI0
aI0
aI0
aI0
aI3
aI0
aI14
aI3
aI0
aI0
aI0
aI0
aI0
aI1
aI13
aI2
aI0
aI0
aI0
aI3
aI7
aI14
aI5
aI0
aI0
aI0
aI3
aa(lp118
I0
aI1
aI12
aI16
aI13
aI7
aI0
aI0
aI0
aI12
aI11
aI4
aI4
aI15
aI0
aI0
aI0
aI8
aI3
aI0
aI6
aI14
aI2
aI0
aI0
aI0
aI0
aI9
aI16
aI8
aI0
aI0
aI0
aI0
aI0
aI1
aI5
aI13
aI3
aI0
aI0
aI0
aI0
aI0
aI0
aI7
aI8
aI0
aI0
aI0
aI0
aI0
aI0
aI9
aI10
aI0
aI0
aI0
aI10
aI10
aI13
aI14
aI1
aI0
aI3
aa(lp119
I0
aI1
aI13
aI16
aI16
aI12
aI1
aI0
aI0
aI12
aI15
aI6
aI12
aI16
aI3
aI0
aI0
aI13
aI10
aI10
aI16
aI9
aI0
aI0
aI0
aI0
aI5
aI16
aI15
aI4
aI0
aI0
aI0
aI0
aI0
aI2
aI10
aI14
aI1
aI0
aI0
aI0
aI0
aI0
aI1
aI16
aI7
aI0
aI0
aI0
aI3
aI1
aI5
aI16
aI9
aI0
aI0
aI1
aI14
aI16
aI16
aI11
aI1
aI0
aI3
aa(lp120
I0
aI1
aI9
aI15
aI16
aI6
aI0
aI0
aI0
aI13
aI15
aI10
aI16
aI11
aI0
aI0
aI0
aI5
aI3
aI4
aI16
aI7
aI0
aI0
aI0
aI0
aI0
aI8
aI16
aI7
aI0
aI0
aI0
aI0
aI0
aI1
aI13
aI15
aI5
aI0
aI0
aI0
aI0
aI0
aI2
aI13
aI11
aI0
aI0
aI0
aI12
aI5
aI3
aI13
aI14
aI0
aI0
aI0
aI10
aI16
aI16
aI14
aI5
aI0
aI3
aa(lp121
I0
aI0
aI7
aI14
aI16
aI13
aI1
aI0
aI0
aI9
aI15
aI8
aI10
aI16
aI7
aI0
aI0
aI5
aI1
aI0
aI14
aI14
aI1
aI0
aI0
aI0
aI0
aI4
aI16
aI12
aI0
aI0
aI0
aI0
aI0
aI2
aI16
aI13
aI0
aI0
aI0
aI0
aI0
aI0
aI6
aI16
aI7
aI0
aI0
aI0
aI9
aI7
aI6
aI16
aI9
aI0
aI0
aI0
aI5
aI15
aI16
aI11
aI3
aI0
aI3
aa(lp122
I0
aI1
aI8
aI10
aI14
aI10
aI0
aI0
aI0
aI12
aI10
aI6
aI6
aI16
aI2
aI0
aI0
aI3
aI0
aI0
aI7
aI14
aI1
aI0
aI0
aI0
aI0
aI0
aI9
aI11
aI0
aI0
aI0
aI0
aI0
aI0
aI2
aI16
aI1
aI0
aI0
aI0
aI0
aI0
aI0
aI8
aI12
aI0
aI0
aI0
aI4
aI0
aI2
aI11
aI9
aI0
aI0
aI0
aI12
aI16
aI14
aI12
aI4
aI0
aI3
aa(lp123
I0
aI2
aI10
aI15
aI16
aI16
aI14
aI0
aI0
aI7
aI11
aI4
aI6
aI15
aI9
aI0
aI0
aI0
aI0
aI6
aI15
aI12
aI0
aI0
aI0
aI0
aI3
aI16
aI9
aI0
aI0
aI0
aI0
aI0
aI5
aI16
aI8
aI0
aI0
aI0
aI0
aI0
aI0
aI11
aI15
aI2
aI0
aI0
aI0
aI0
aI1
aI6
aI16
aI2
aI0
aI0
aI0
aI1
aI16
aI16
aI6
aI0
aI0
aI0
aI3
aa(lp124
I0
aI2
aI9
aI15
aI16
aI15
aI2
aI0
aI0
aI11
aI11
aI5
aI9
aI16
aI3
aI0
aI0
aI0
aI0
aI0
aI9
aI12
aI0
aI0
aI0
aI0
aI0
aI0
aI6
aI15
aI1
aI0
aI0
aI0
aI0
aI0
aI0
aI14
aI9
aI0
aI0
aI0
aI0
aI0
aI0
aI12
aI12
aI0
aI0
aI0
aI5
aI3
aI6
aI15
aI7
aI0
aI0
aI0
aI12
aI16
aI15
aI9
aI1
aI0
aI3
aa(lp125
I0
aI0
aI8
aI14
aI16
aI13
aI1
aI0
aI0
aI10
aI9
aI4
aI6
aI16
aI3
aI0
aI0
aI0
aI0
aI1
aI10
aI13
aI0
aI0
aI0
aI0
aI0
aI7
aI14
aI2
aI0
aI0
aI0
aI0
aI0
aI7
aI13
aI1
aI0
aI0
aI0
aI0
aI0
aI0
aI8
aI13
aI1
aI0
aI0
aI0
aI0
aI0
aI3
aI16
aI4
aI0
aI0
aI0
aI14
aI16
aI13
aI9
aI0
aI0
aI3
aa(lp126
I0
aI0
aI9
aI14
aI16
aI16
aI2
aI0
aI0
aI7
aI15
aI7
aI4
aI14
aI8
aI0
aI0
aI0
aI0
aI0
aI5
aI15
aI4
aI0
aI0
aI0
aI0
aI0
aI16
aI4
aI0
aI0
aI0
aI0
aI0
aI0
aI15
aI4
aI0
aI0
aI0
aI0
aI0
aI0
aI7
aI12
aI0
aI0
aI0
aI0
aI15
aI2
aI8
aI14
aI0
aI0
aI0
aI0
aI10
aI15
aI12
aI3
aI0
aI0
aI3
aa(lp127
I0
aI2
aI13
aI16
aI16
aI15
aI4
aI0
aI0
aI7
aI12
aI8
aI8
aI16
aI12
aI0
aI0
aI0
aI0
aI0
aI8
aI16
aI7
aI0
aI0
aI0
aI0
aI0
aI14
aI10
aI0
aI0
aI0
aI0
aI0
aI0
aI12
aI15
aI3
aI0
aI0
aI0
aI0
aI0
aI2
aI16
aI11
aI0
aI0
aI0
aI4
aI4
aI7
aI16
aI10
aI0
aI0
aI2
aI15
aI16
aI16
aI12
aI1
aI0
aI3
aa(lp128
I0
aI3
aI12
aI15
aI16
aI16
aI3
aI0
aI0
aI6
aI16
aI9
aI9
aI16
aI6
aI0
aI0
aI0
aI3
aI0
aI11
aI15
aI1
aI0
aI0
aI0
aI0
aI4
aI16
aI7
aI0
aI0
aI0
aI0
aI0
aI7
aI16
aI4
aI0
aI0
aI0
aI0
aI0
aI0
aI13
aI11
aI0
aI0
aI0
aI0
aI4
aI5
aI15
aI14
aI0
aI0
aI0
aI3
aI16
aI16
aI15
aI6
aI0
aI0
aI3
aa(lp129
I0
aI0
aI10
aI16
aI16
aI11
aI0
aI0
aI0
aI1
aI11
aI7
aI6
aI16
aI3
aI0
aI0
aI0
aI0
aI0
aI10
aI15
aI0
aI0
aI0
aI0
aI0
aI0
aI15
aI7
aI0
aI0
aI0
aI0
aI0
aI0
aI15
aI9
aI0
aI0
aI0
aI0
aI0
aI0
aI7
aI13
aI0
aI0
aI0
aI0
aI5
aI4
aI10
aI16
aI0
aI0
aI0
aI0
aI10
aI16
aI16
aI10
aI0
aI0
aI3
aa(lp130
I0
aI1
aI7
aI15
aI16
aI9
aI0
aI0
aI1
aI13
aI14
aI7
aI14
aI14
aI0
aI0
aI0
aI6
aI1
aI8
aI16
aI8
aI0
aI0
aI0
aI0
aI3
aI16
aI9
aI0
aI0
aI0
aI0
aI0
aI0
aI11
aI15
aI6
aI1
aI0
aI0
aI0
aI0
aI0
aI7
aI15
aI11
aI0
aI0
aI0
aI5
aI1
aI0
aI11
aI16
aI2
aI0
aI0
aI10
aI16
aI16
aI16
aI7
aI0
aI3
aa(lp131
I0
aI0
aI5
aI12
aI16
aI10
aI0
aI0
aI0
aI8
aI15
aI5
aI12
aI13
aI0
aI0
aI0
aI0
aI0
aI3
aI16
aI4
aI0
aI0
aI0
aI0
aI0
aI5
aI16
aI3
aI0
aI0
aI0
aI0
aI0
aI2
aI15
aI8
aI0
aI0
aI0
aI0
aI0
aI0
aI2
aI14
aI7
aI0
aI0
aI0
aI0
aI0
aI0
aI13
aI11
aI0
aI0
aI0
aI5
aI16
aI16
aI11
aI3
aI0
aI3
aa(lp132
I0
aI4
aI13
aI16
aI16
aI15
aI3
aI0
aI0
aI10
aI12
aI7
aI8
aI16
aI8
aI0
aI0
aI0
aI0
aI1
aI12
aI15
aI2
aI0
aI0
aI0
aI0
aI4
aI16
aI10
aI0
aI0
aI0
aI0
aI0
aI8
aI16
aI4
aI0
aI0
aI0
aI0
aI0
aI1
aI16
aI10
aI0
aI0
aI0
aI5
aI7
aI4
aI15
aI13
aI0
aI0
aI0
aI5
aI16
aI16
aI16
aI7
aI0
aI0
aI3
aa(lp133
I0
aI4
aI14
aI16
aI16
aI15
aI2
aI0
aI0
aI12
aI11
aI2
aI4
aI16
aI5
aI0
aI0
aI2
aI0
aI1
aI11
aI12
aI0
aI0
aI0
aI0
aI0
aI15
aI16
aI3
aI0
aI0
aI0
aI0
aI0
aI4
aI15
aI10
aI0
aI0
aI0
aI0
aI0
aI0
aI1
aI14
aI10
aI0
aI0
aI1
aI7
aI0
aI3
aI14
aI8
aI0
aI0
aI4
aI15
aI16
aI16
aI11
aI0
aI0
aI3
aa(lp134
I0
aI0
aI9
aI16
aI16
aI12
aI2
aI0
aI0
aI3
aI13
aI5
aI4
aI14
aI5
aI0
aI0
aI0
aI0
aI0
aI7
aI15
aI2
aI0
aI0
aI0
aI0
aI5
aI16
aI11
aI0
aI0
aI0
aI0
aI0
aI0
aI8
aI16
aI7
aI0
aI0
aI0
aI0
aI0
aI0
aI13
aI8
aI0
aI0
aI0
aI4
aI5
aI5
aI15
aI4
aI0
aI0
aI0
aI12
aI16
aI15
aI5
aI0
aI0
aI3
aa(lp135
I0
aI1
aI13
aI16
aI16
aI8
aI0
aI0
aI0
aI11
aI13
aI4
aI13
aI7
aI0
aI0
aI0
aI7
aI1
aI7
aI16
aI1
aI0
aI0
aI0
aI0
aI5
aI16
aI15
aI9
aI0
aI0
aI0
aI0
aI3
aI6
aI8
aI15
aI8
aI0
aI0
aI0
aI6
aI1
aI0
aI7
aI13
aI0
aI0
aI4
aI16
aI5
aI2
aI13
aI10
aI0
aI0
aI1
aI12
aI16
aI16
aI11
aI1
aI0
aI3
aa(lp136
I0
aI0
aI9
aI16
aI16
aI12
aI0
aI0
aI0
aI2
aI16
aI8
aI9
aI16
aI0
aI0
aI0
aI1
aI8
aI0
aI13
aI14
aI0
aI0
aI0
aI0
aI0
aI13
aI16
aI5
aI0
aI0
aI0
aI0
aI0
aI8
aI14
aI15
aI5
aI0
aI0
aI0
aI0
aI0
aI0
aI9
aI14
aI0
aI0
aI0
aI9
aI6
aI0
aI11
aI15
aI0
aI0
aI0
aI8
aI16
aI16
aI16
aI6
aI0
aI3
aa(lp137
I0
aI0
aI8
aI16
aI16
aI12
aI0
aI0
aI0
aI0
aI14
aI12
aI10
aI14
aI0
aI0
aI0
aI0
aI3
aI3
aI10
aI10
aI0
aI0
aI0
aI0
aI0
aI8
aI16
aI5
aI0
aI0
aI0
aI0
aI0
aI7
aI16
aI6
aI0
aI0
aI0
aI0
aI4
aI0
aI7
aI14
aI0
aI0
aI0
aI2
aI16
aI5
aI10
aI16
aI0
aI0
aI0
aI0
aI7
aI16
aI16
aI7
aI0
aI0
aI3
aa(lp138
I0
aI0
aI7
aI16
aI16
aI14
aI0
aI0
aI0
aI0
aI16
aI12
aI10
aI15
aI1
aI0
aI0
aI0
aI10
aI4
aI16
aI10
aI0
aI0
aI0
aI0
aI0
aI9
aI16
aI11
aI1
aI0
aI0
aI0
aI0
aI0
aI7
aI16
aI8
aI0
aI0
aI0
aI0
aI0
aI0
aI16
aI7
aI0
aI0
aI0
aI8
aI4
aI10
aI15
aI2
aI0
aI0
aI0
aI12
aI16
aI16
aI6
aI0
aI0
aI3
aa(lp139
I0
aI0
aI5
aI15
aI16
aI15
aI1
aI0
aI0
aI10
aI16
aI11
aI8
aI16
aI5
aI0
aI0
aI12
aI10
aI1
aI10
aI15
aI1
aI0
aI0
aI0
aI0
aI8
aI16
aI11
aI1
aI0
aI0
aI0
aI0
aI1
aI10
aI16
aI10
aI0
aI0
aI0
aI0
aI2
aI0
aI7
aI16
aI0
aI0
aI0
aI8
aI13
aI5
aI15
aI12
aI0
aI0
aI0
aI5
aI15
aI16
aI14
aI3
aI0
aI3
aa(lp140
I0
aI0
aI10
aI16
aI16
aI10
aI1
aI0
aI0
aI4
aI16
aI11
aI11
aI16
aI3
aI0
aI0
aI1
aI9
aI1
aI10
aI15
aI1
aI0
aI0
aI0
aI0
aI5
aI16
aI10
aI0
aI0
aI0
aI0
aI0
aI0
aI7
aI15
aI10
aI0
aI0
aI0
aI0
aI0
aI0
aI7
aI16
aI0
aI0
aI2
aI12
aI7
aI4
aI14
aI15
aI1
aI0
aI0
aI11
aI16
aI16
aI15
aI4
aI0
aI3
aa(lp141
I0
aI0
aI13
aI16
aI16
aI9
aI0
aI0
aI0
aI2
aI16
aI7
aI7
aI16
aI0
aI0
aI0
aI0
aI4
aI0
aI11
aI10
aI0
aI0
aI0
aI0
aI1
aI13
aI14
aI3
aI0
aI0
aI0
aI0
aI0
aI7
aI15
aI11
aI1
aI0
aI0
aI0
aI0
aI1
aI2
aI13
aI10
aI0
aI0
aI0
aI8
aI9
aI1
aI12
aI11
aI0
aI0
aI0
aI11
aI16
aI16
aI15
aI1
aI0
aI3
aa(lp142
I0
aI0
aI10
aI16
aI16
aI10
aI0
aI0
aI0
aI8
aI15
aI7
aI6
aI14
aI0
aI0
aI0
aI1
aI3
aI0
aI15
aI8
aI0
aI0
aI0
aI0
aI0
aI12
aI13
aI1
aI0
aI0
aI0
aI0
aI0
aI7
aI15
aI4
aI0
aI0
aI0
aI0
aI0
aI0
aI8
aI12
aI0
aI0
aI0
aI0
aI6
aI0
aI12
aI10
aI0
aI0
aI0
aI0
aI13
aI16
aI15
aI3
aI0
aI0
aI3
aa(lp143
I0
aI1
aI12
aI16
aI14
aI2
aI0
aI0
aI0
aI7
aI15
aI4
aI13
aI7
aI0
aI0
aI0
aI0
aI2
aI0
aI12
aI7
aI0
aI0
aI0
aI0
aI0
aI6
aI16
aI8
aI0
aI0
aI0
aI0
aI0
aI15
aI13
aI15
aI9
aI0
aI0
aI0
aI0
aI1
aI0
aI8
aI15
aI0
aI0
aI0
aI8
aI4
aI1
aI12
aI10
aI0
aI0
aI1
aI13
aI16
aI16
aI13
aI1
aI0
aI3
aa(lp144
I0
aI0
aI5
aI16
aI16
aI10
aI0
aI0
aI0
aI2
aI16
aI14
aI14
aI14
aI0
aI0
aI0
aI2
aI14
aI4
aI14
aI10
aI0
aI0
aI0
aI0
aI0
aI8
aI16
aI8
aI0
aI0
aI0
aI0
aI0
aI0
aI8
aI16
aI6
aI0
aI0
aI0
aI0
aI0
aI0
aI12
aI13
aI0
aI0
aI0
aI7
aI11
aI8
aI16
aI11
aI0
aI0
aI0
aI8
aI16
aI16
aI10
aI1
aI0
aI3
aa(lp145
I0
aI0
aI9
aI16
aI16
aI7
aI0
aI0
aI0
aI13
aI15
aI9
aI12
aI15
aI0
aI0
aI0
aI5
aI4
aI0
aI13
aI13
aI0
aI0
aI0
aI0
aI0
aI11
aI16
aI5
aI0
aI0
aI0
aI0
aI0
aI11
aI16
aI10
aI3
aI0
aI0
aI0
aI0
aI0
aI4
aI12
aI13
aI0
aI0
aI0
aI7
aI1
aI1
aI12
aI14
aI0
aI0
aI0
aI9
aI16
aI16
aI14
aI5
aI0
aI3
aa(lp146
I0
aI0
aI8
aI16
aI8
aI0
aI0
aI0
aI0
aI0
aI16
aI6
aI15
aI1
aI0
aI0
aI0
aI4
aI10
aI0
aI12
aI2
aI0
aI0
aI0
aI0
aI0
aI7
aI16
aI3
aI0
aI0
aI0
aI0
aI0
aI5
aI13
aI16
aI3
aI0
aI0
aI0
aI0
aI0
aI0
aI11
aI6
aI0
aI0
aI0
aI12
aI9
aI9
aI16
aI2
aI0
aI0
aI0
aI8
aI16
aI15
aI7
aI0
aI0
aI3
aa(lp147
I0
aI0
aI12
aI16
aI15
aI1
aI0
aI0
aI0
aI5
aI16
aI10
aI15
aI8
aI0
aI0
aI0
aI1
aI7
aI3
aI14
aI6
aI0
aI0
aI0
aI0
aI0
aI12
aI16
aI7
aI0
aI0
aI0
aI0
aI0
aI3
aI13
aI16
aI6
aI0
aI0
aI0
aI4
aI0
aI0
aI15
aI11
aI0
aI0
aI2
aI16
aI10
aI11
aI16
aI7
aI0
aI0
aI0
aI10
aI16
aI16
aI10
aI1
aI0
aI3
aa(lp148
I0
aI1
aI12
aI15
aI5
aI0
aI0
aI0
aI0
aI4
aI15
aI8
aI15
aI3
aI0
aI0
aI0
aI0
aI3
aI1
aI14
aI4
aI0
aI0
aI0
aI0
aI4
aI14
aI16
aI1
aI0
aI0
aI0
aI0
aI1
aI10
aI14
aI15
aI4
aI0
aI0
aI0
aI0
aI0
aI0
aI12
aI8
aI0
aI0
aI4
aI8
aI4
aI10
aI16
aI4
aI0
aI0
aI2
aI12
aI16
aI13
aI6
aI0
aI0
aI3
aa(lp149
I0
aI0
aI8
aI13
aI12
aI3
aI0
aI0
aI0
aI6
aI15
aI7
aI9
aI12
aI0
aI0
aI0
aI0
aI0
aI0
aI7
aI11
aI0
aI0
aI0
aI0
aI0
aI4
aI15
aI3
aI0
aI0
aI0
aI0
aI0
aI10
aI16
aI9
aI0
aI0
aI0
aI0
aI0
aI0
aI4
aI15
aI7
aI0
aI0
aI0
aI11
aI2
aI1
aI15
aI7
aI0
aI0
aI0
aI8
aI16
aI16
aI12
aI0
aI0
aI3
aa(lp150
I0
aI2
aI10
aI16
aI16
aI2
aI0
aI0
aI0
aI10
aI15
aI9
aI16
aI4
aI0
aI0
aI0
aI5
aI3
aI6
aI16
aI2
aI0
aI0
aI0
aI0
aI2
aI15
aI16
aI5
aI0
aI0
aI0
aI0
aI1
aI10
aI14
aI16
aI3
aI0
aI0
aI0
aI5
aI1
aI0
aI13
aI10
aI0
aI0
aI0
aI16
aI13
aI10
aI15
aI11
aI0
aI0
aI0
aI11
aI16
aI16
aI13
aI3
aI0
aI3
aa(lp151
I0
aI0
aI8
aI13
aI11
aI1
aI0
aI0
aI0
aI4
aI15
aI5
aI12
aI6
aI0
aI0
aI0
aI0
aI0
aI0
aI10
aI4
aI0
aI0
aI0
aI0
aI0
aI6
aI16
aI4
aI0
aI0
aI0
aI0
aI0
aI5
aI13
aI15
aI3
aI0
aI0
aI0
aI1
aI0
aI0
aI7
aI12
aI0
aI0
aI1
aI15
aI8
aI7
aI12
aI12
aI0
aI0
aI0
aI6
aI14
aI16
aI15
aI5
aI0
aI3
aa(lp152
I0
aI1
aI11
aI16
aI16
aI4
aI0
aI0
aI0
aI7
aI16
aI8
aI14
aI11
aI0
aI0
aI0
aI0
aI0
aI10
aI16
aI6
aI0
aI0
aI0
aI0
aI0
aI15
aI16
aI6
aI0
aI0
aI0
aI0
aI0
aI0
aI8
aI16
aI2
aI0
aI0
aI1
aI5
aI0
aI0
aI14
aI9
aI0
aI0
aI4
aI16
aI10
aI11
aI16
aI6
aI0
aI0
aI1
aI13
aI16
aI16
aI10
aI0
aI0
aI3
aa(lp153
I0
aI1
aI12
aI16
aI16
aI9
aI0
aI0
aI0
aI2
aI14
aI5
aI9
aI14
aI0
aI0
aI0
aI0
aI0
aI1
aI12
aI11
aI0
aI0
aI0
aI0
aI0
aI12
aI16
aI6
aI0
aI0
aI0
aI0
aI0
aI2
aI8
aI15
aI5
aI0
aI0
aI0
aI2
aI0
aI0
aI11
aI9
aI0
aI0
aI4
aI14
aI4
aI4
aI14
aI6
aI0
aI0
aI0
aI15
aI16
aI16
aI11
aI1
aI0
aI3
aa(lp154
I0
aI1
aI9
aI15
aI13
aI4
aI0
aI0
aI0
aI5
aI12
aI4
aI10
aI6
aI0
aI0
aI0
aI0
aI0
aI3
aI15
aI2
aI0
aI0
aI0
aI0
aI0
aI15
aI13
aI1
aI0
aI0
aI0
aI0
aI0
aI2
aI9
aI14
aI2
aI0
aI0
aI0
aI0
aI0
aI0
aI11
aI8
aI0
aI0
aI0
aI10
aI6
aI4
aI11
aI7
aI0
aI0
aI0
aI8
aI15
aI16
aI9
aI1
aI0
aI3
aa(lp155
I0
aI0
aI13
aI16
aI16
aI5
aI0
aI0
aI0
aI5
aI15
aI6
aI11
aI13
aI0
aI0
aI0
aI0
aI2
aI2
aI13
aI8
aI0
aI0
aI0
aI0
aI4
aI16
aI15
aI2
aI0
aI0
aI0
aI0
aI3
aI11
aI15
aI16
aI5
aI0
aI0
aI0
aI0
aI0
aI2
aI15
aI11
aI0
aI0
aI0
aI3
aI4
aI9
aI16
aI6
aI0
aI0
aI0
aI15
aI16
aI16
aI10
aI0
aI0
aI3
aa(lp156
I0
aI0
aI11
aI16
aI12
aI2
aI0
aI0
aI0
aI7
aI16
aI6
aI10
aI13
aI0
aI0
aI0
aI0
aI2
aI0
aI3
aI16
aI0
aI0
aI0
aI0
aI0
aI3
aI12
aI9
aI0
aI0
aI0
aI0
aI0
aI10
aI16
aI12
aI0
aI0
aI0
aI0
aI3
aI0
aI3
aI15
aI7
aI0
aI0
aI3
aI16
aI7
aI6
aI14
aI8
aI0
aI0
aI1
aI9
aI15
aI16
aI12
aI1
aI0
aI3
aa(lp157
I0
aI0
aI5
aI12
aI13
aI3
aI0
aI0
aI0
aI4
aI16
aI9
aI8
aI12
aI0
aI0
aI0
aI2
aI3
aI0
aI5
aI11
aI0
aI0
aI0
aI0
aI0
aI3
aI11
aI10
aI0
aI0
aI0
aI0
aI0
aI6
aI14
aI15
aI3
aI0
aI0
aI0
aI0
aI0
aI0
aI7
aI11
aI0
aI0
aI0
aI10
aI6
aI4
aI9
aI11
aI0
aI0
aI0
aI6
aI16
aI16
aI14
aI2
aI0
aI3
aa(lp158
I0
aI0
aI8
aI15
aI12
aI4
aI0
aI0
aI0
aI5
aI14
aI4
aI11
aI7
aI0
aI0
aI0
aI0
aI0
aI1
aI14
aI3
aI0
aI0
aI0
aI0
aI2
aI15
aI14
aI1
aI0
aI0
aI0
aI0
aI0
aI8
aI13
aI11
aI0
aI0
aI0
aI0
aI0
aI0
aI0
aI13
aI5
aI0
aI0
aI0
aI12
aI2
aI3
aI12
aI7
aI0
aI0
aI0
aI13
aI16
aI15
aI8
aI0
aI0
aI3
aa(lp159
I0
aI0
aI4
aI16
aI16
aI9
aI0
aI0
aI0
aI0
aI1
aI9
aI10
aI16
aI1
aI0
aI0
aI0
aI0
aI5
aI15
aI16
aI1
aI0
aI0
aI0
aI0
aI10
aI16
aI5
aI0
aI0
aI0
aI0
aI0
aI2
aI16
aI6
aI0
aI0
aI0
aI0
aI0
aI0
aI10
aI10
aI0
aI0
aI0
aI0
aI11
aI8
aI12
aI14
aI1
aI0
aI0
aI0
aI5
aI13
aI16
aI15
aI0
aI0
aI3
aa(lp160
I0
aI0
aI3
aI11
aI13
aI15
aI3
aI0
aI0
aI4
aI16
aI14
aI11
aI16
aI8
aI0
aI0
aI2
aI5
aI0
aI14
aI15
aI1
aI0
aI0
aI0
aI0
aI0
aI16
aI11
aI0
aI0
aI0
aI0
aI0
aI0
aI11
aI10
aI0
aI0
aI0
aI0
aI0
aI0
aI8
aI12
aI0
aI0
aI0
aI0
aI8
aI11
aI15
aI8
aI0
aI0
aI0
aI0
aI2
aI12
aI14
aI3
aI0
aI0
aI3
aa(lp161
I0
aI0
aI10
aI16
aI15
aI7
aI0
aI0
aI0
aI6
aI16
aI6
aI10
aI16
aI2
aI0
aI0
aI8
aI6
aI5
aI15
aI12
aI0
aI0
aI0
aI0
aI0
aI13
aI16
aI2
aI0
aI0
aI0
aI0
aI0
aI5
aI16
aI4
aI0
aI0
aI0
aI0
aI0
aI0
aI10
aI16
aI0
aI0
aI0
aI0
aI0
aI1
aI11
aI16
aI1
aI0
aI0
aI0
aI11
aI16
aI16
aI8
aI1
aI0
aI3
aa(lp162
I0
aI2
aI16
aI16
aI16
aI12
aI0
aI0
aI0
aI1
aI9
aI5
aI12
aI16
aI2
aI0
aI0
aI0
aI0
aI6
aI15
aI14
aI2
aI0
aI0
aI0
aI1
aI16
aI16
aI1
aI0
aI0
aI0
aI0
aI0
aI12
aI16
aI1
aI0
aI0
aI0
aI0
aI0
aI6
aI16
aI6
aI0
aI0
aI0
aI0
aI0
aI12
aI16
aI5
aI0
aI0
aI0
aI1
aI16
aI16
aI13
aI1
aI0
aI0
aI3
aa(lp163
I0
aI0
aI11
aI15
aI16
aI10
aI0
aI0
aI0
aI8
aI16
aI8
aI15
aI16
aI0
aI0
aI0
aI5
aI6
aI10
aI16
aI8
aI0
aI0
aI0
aI0
aI4
aI16
aI11
aI1
aI0
aI0
aI0
aI0
aI2
aI15
aI9
aI0
aI0
aI0
aI0
aI0
aI0
aI9
aI16
aI2
aI0
aI0
aI0
aI0
aI0
aI8
aI16
aI5
aI0
aI0
aI0
aI0
aI13
aI16
aI15
aI0
aI0
aI0
aI3
aa(lp164
I0
aI2
aI11
aI14
aI14
aI9
aI0
aI0
aI0
aI3
aI10
aI7
aI10
aI16
aI3
aI0
aI0
aI0
aI0
aI4
aI13
aI12
aI0
aI0
aI0
aI0
aI0
aI13
aI15
aI2
aI0
aI0
aI0
aI0
aI0
aI15
aI9
aI0
aI0
aI0
aI0
aI0
aI0
aI9
aI15
aI0
aI0
aI0
aI0
aI0
aI1
aI13
aI9
aI0
aI0
aI0
aI0
aI1
aI15
aI13
aI1
aI0
aI0
aI0
aI3
aa(lp165
I0
aI0
aI9
aI16
aI16
aI10
aI0
aI0
aI0
aI0
aI9
aI9
aI9
aI15
aI0
aI0
aI0
aI0
aI0
aI0
aI6
aI14
aI0
aI0
aI0
aI0
aI0
aI2
aI15
aI7
aI0
aI0
aI0
aI0
aI1
aI14
aI16
aI4
aI0
aI0
aI0
aI0
aI5
aI16
aI16
aI8
aI0
aI0
aI0
aI0
aI0
aI6
aI16
aI4
aI0
aI0
aI0
aI0
aI11
aI16
aI12
aI0
aI0
aI0
aI3
aa(lp166
I0
aI0
aI8
aI16
aI16
aI13
aI0
aI0
aI0
aI0
aI10
aI11
aI9
aI16
aI2
aI0
aI0
aI0
aI0
aI4
aI16
aI12
aI0
aI0
aI0
aI0
aI2
aI16
aI15
aI1
aI0
aI0
aI0
aI0
aI2
aI15
aI11
aI0
aI0
aI0
aI0
aI0
aI0
aI4
aI16
aI3
aI0
aI0
aI0
aI3
aI12
aI2
aI14
aI4
aI0
aI0
aI0
aI0
aI9
aI16
aI16
aI5
aI0
aI0
aI3
aa(lp167
I0
aI1
aI11
aI16
aI16
aI12
aI0
aI0
aI0
aI8
aI16
aI13
aI16
aI16
aI3
aI0
aI0
aI1
aI5
aI7
aI16
aI14
aI0
aI0
aI0
aI0
aI0
aI11
aI16
aI4
aI0
aI0
aI0
aI0
aI0
aI2
aI15
aI9
aI0
aI0
aI0
aI0
aI0
aI0
aI11
aI13
aI0
aI0
aI0
aI0
aI3
aI7
aI15
aI14
aI0
aI0
aI0
aI0
aI14
aI16
aI16
aI6
aI0
aI0
aI3
aa(lp168
I0
aI0
aI6
aI16
aI15
aI5
aI0
aI0
aI0
aI0
aI2
aI13
aI14
aI13
aI0
aI0
aI0
aI0
aI0
aI2
aI14
aI14
aI1
aI0
aI0
aI0
aI0
aI3
aI16
aI10
aI0
aI0
aI0
aI0
aI0
aI0
aI14
aI10
aI0
aI0
aI0
aI0
aI0
aI0
aI10
aI14
aI0
aI0
aI0
aI0
aI8
aI7
aI12
aI16
aI0
aI0
aI0
aI0
aI6
aI16
aI16
aI12
aI1
aI0
aI3
aa(lp169
I0
aI0
aI6
aI15
aI15
aI4
aI0
aI0
aI0
aI6
aI16
aI16
aI16
aI14
aI0
aI0
aI0
aI7
aI16
aI14
aI16
aI13
aI0
aI0
aI0
aI0
aI3
aI7
aI16
aI6
aI0
aI0
aI0
aI0
aI0
aI2
aI16
aI9
aI0
aI0
aI0
aI0
aI0
aI0
aI14
aI15
aI0
aI0
aI0
aI0
aI7
aI10
aI16
aI14
aI0
aI0
aI0
aI0
aI7
aI15
aI15
aI4
aI0
aI0
aI3
aa(lp170
I0
aI0
aI7
aI15
aI16
aI10
aI0
aI0
aI0
aI0
aI14
aI9
aI10
aI16
aI1
aI0
aI0
aI0
aI2
aI5
aI15
aI14
aI0
aI0
aI0
aI0
aI0
aI11
aI16
aI5
aI0
aI0
aI0
aI0
aI0
aI2
aI16
aI8
aI0
aI0
aI0
aI0
aI0
aI0
aI10
aI13
aI0
aI0
aI0
aI0
aI11
aI9
aI15
aI16
aI1
aI0
aI0
aI0
aI8
aI16
aI16
aI12
aI0
aI0
aI3
aa(lp171
I0
aI0
aI8
aI15
aI16
aI6
aI0
aI0
aI0
aI0
aI13
aI13
aI13
aI13
aI0
aI0
aI0
aI0
aI2
aI6
aI16
aI9
aI0
aI0
aI0
aI0
aI0
aI3
aI16
aI2
aI0
aI0
aI0
aI0
aI0
aI0
aI10
aI10
aI0
aI0
aI0
aI0
aI0
aI0
aI5
aI15
aI0
aI0
aI0
aI0
aI7
aI4
aI11
aI16
aI1
aI0
aI0
aI0
aI7
aI16
aI16
aI8
aI0
aI0
aI3
aa(lp172
I0
aI1
aI6
aI12
aI15
aI5
aI0
aI0
aI0
aI7
aI14
aI14
aI16
aI7
aI0
aI0
aI0
aI0
aI2
aI14
aI10
aI0
aI0
aI0
aI0
aI0
aI11
aI16
aI2
aI0
aI0
aI0
aI0
aI0
aI2
aI11
aI16
aI12
aI0
aI0
aI0
aI0
aI0
aI0
aI4
aI14
aI7
aI0
aI0
aI0
aI2
aI4
aI5
aI14
aI7
aI0
aI0
aI0
aI6
aI16
aI14
aI8
aI0
aI0
aI3
aa(lp173
I0
aI1
aI8
aI13
aI16
aI13
aI0
aI0
aI0
aI1
aI13
aI12
aI15
aI16
aI0
aI0
aI0
aI0
aI0
aI5
aI15
aI8
aI0
aI0
aI0
aI0
aI5
aI15
aI5
aI0
aI0
aI0
aI0
aI0
aI6
aI16
aI11
aI1
aI0
aI0
aI0
aI0
aI2
aI13
aI16
aI11
aI0
aI0
aI0
aI0
aI0
aI2
aI14
aI16
aI4
aI0
aI0
aI0
aI13
aI16
aI15
aI7
aI0
aI0
aI3
aa(lp174
I0
aI4
aI13
aI16
aI16
aI7
aI0
aI0
aI0
aI8
aI12
aI16
aI16
aI13
aI0
aI0
aI0
aI0
aI9
aI16
aI16
aI3
aI0
aI0
aI0
aI0
aI15
aI16
aI6
aI0
aI0
aI0
aI0
aI0
aI10
aI11
aI9
aI2
aI0
aI0
aI0
aI0
aI1
aI7
aI15
aI13
aI2
aI0
aI0
aI0
aI3
aI4
aI7
aI16
aI10
aI0
aI0
aI2
aI11
aI15
aI11
aI8
aI2
aI0
aI3
aa(lp175
I0
aI0
aI8
aI14
aI16
aI16
aI15
aI1
aI0
aI0
aI6
aI6
aI5
aI12
aI12
aI1
aI0
aI0
aI0
aI2
aI11
aI12
aI3
aI0
aI0
aI0
aI5
aI14
aI9
aI0
aI0
aI0
aI0
aI0
aI9
aI16
aI9
aI0
aI0
aI0
aI0
aI0
aI1
aI11
aI16
aI7
aI0
aI0
aI0
aI0
aI2
aI7
aI16
aI7
aI0
aI0
aI0
aI0
aI9
aI13
aI5
aI0
aI0
aI0
aI3
aa(lp176
I0
aI0
aI5
aI13
aI16
aI10
aI1
aI0
aI0
aI7
aI16
aI16
aI16
aI16
aI7
aI0
aI0
aI0
aI5
aI2
aI11
aI14
aI5
aI0
aI0
aI0
aI0
aI10
aI15
aI6
aI0
aI0
aI0
aI0
aI9
aI16
aI13
aI2
aI0
aI0
aI0
aI0
aI4
aI11
aI15
aI14
aI0
aI0
aI0
aI0
aI2
aI2
aI13
aI16
aI1
aI0
aI0
aI0
aI5
aI14
aI15
aI9
aI0
aI0
aI3
aa(lp177
I0
aI0
aI6
aI11
aI16
aI13
aI5
aI0
aI0
aI2
aI16
aI16
aI16
aI16
aI12
aI0
aI0
aI0
aI0
aI0
aI5
aI16
aI4
aI0
aI0
aI0
aI0
aI10
aI15
aI5
aI0
aI0
aI0
aI0
aI9
aI16
aI3
aI0
aI0
aI0
aI0
aI0
aI13
aI16
aI13
aI1
aI0
aI0
aI0
aI0
aI0
aI5
aI16
aI14
aI0
aI0
aI0
aI0
aI5
aI14
aI11
aI6
aI0
aI0
aI3
aa(lp178
I0
aI0
aI4
aI12
aI13
aI1
aI0
aI0
aI0
aI0
aI4
aI16
aI16
aI5
aI0
aI0
aI0
aI0
aI9
aI16
aI10
aI0
aI0
aI0
aI0
aI8
aI16
aI16
aI11
aI4
aI0
aI0
aI0
aI0
aI4
aI8
aI16
aI16
aI7
aI0
aI0
aI0
aI0
aI0
aI2
aI14
aI14
aI0
aI0
aI0
aI0
aI4
aI15
aI16
aI11
aI0
aI0
aI0
aI5
aI16
aI14
aI8
aI0
aI0
aI3
aa(lp179
I0
aI1
aI9
aI16
aI16
aI12
aI1
aI0
aI0
aI0
aI7
aI8
aI10
aI16
aI9
aI0
aI0
aI0
aI0
aI0
aI9
aI16
aI4
aI0
aI0
aI0
aI5
aI13
aI13
aI3
aI0
aI0
aI0
aI0
aI13
aI16
aI8
aI0
aI0
aI0
aI0
aI0
aI0
aI11
aI16
aI8
aI0
aI0
aI0
aI0
aI3
aI5
aI14
aI15
aI0
aI0
aI0
aI0
aI10
aI16
aI11
aI4
aI0
aI0
aI3
aa(lp180
I0
aI0
aI7
aI16
aI16
aI15
aI8
aI0
aI0
aI0
aI12
aI15
aI15
aI16
aI11
aI0
aI0
aI0
aI0
aI3
aI14
aI15
aI2
aI0
aI0
aI0
aI1
aI14
aI12
aI1
aI0
aI0
aI0
aI0
aI1
aI16
aI15
aI5
aI0
aI0
aI0
aI0
aI0
aI3
aI12
aI15
aI0
aI0
aI0
aI0
aI0
aI4
aI12
aI14
aI1
aI0
aI0
aI0
aI10
aI15
aI10
aI4
aI0
aI0
aI3
aa(lp181
I0
aI0
aI10
aI15
aI15
aI11
aI4
aI0
aI0
aI1
aI10
aI5
aI7
aI16
aI10
aI0
aI0
aI0
aI0
aI1
aI14
aI14
aI0
aI0
aI0
aI0
aI0
aI11
aI13
aI0
aI0
aI0
aI0
aI0
aI0
aI5
aI16
aI5
aI0
aI0
aI0
aI0
aI0
aI1
aI10
aI14
aI0
aI0
aI0
aI0
aI0
aI2
aI7
aI15
aI3
aI0
aI0
aI0
aI6
aI11
aI16
aI8
aI0
aI0
aI3
aa(lp182
I0
aI0
aI3
aI13
aI16
aI5
aI0
aI0
aI0
aI6
aI15
aI9
aI15
aI7
aI0
aI0
aI0
aI0
aI0
aI6
aI16
aI10
aI0
aI0
aI0
aI0
aI7
aI14
aI16
aI3
aI0
aI0
aI0
aI0
aI9
aI16
aI16
aI14
aI3
aI0
aI0
aI0
aI0
aI3
aI2
aI15
aI10
aI0
aI0
aI0
aI4
aI5
aI12
aI16
aI14
aI0
aI0
aI0
aI5
aI13
aI14
aI8
aI2
aI0
aI3
aa(lp183
I0
aI1
aI7
aI13
aI16
aI13
aI0
aI0
aI0
aI7
aI16
aI16
aI16
aI14
aI0
aI0
aI0
aI1
aI7
aI16
aI10
aI1
aI0
aI0
aI0
aI1
aI16
aI15
aI0
aI0
aI0
aI0
aI0
aI0
aI8
aI15
aI14
aI3
aI0
aI0
aI0
aI0
aI0
aI1
aI14
aI15
aI3
aI0
aI0
aI0
aI1
aI5
aI13
aI16
aI7
aI0
aI0
aI0
aI8
aI15
aI10
aI6
aI0
aI0
aI3
aa(lp184
I0
aI2
aI10
aI12
aI16
aI8
aI0
aI0
aI0
aI4
aI8
aI5
aI13
aI16
aI0
aI0
aI0
aI0
aI0
aI7
aI15
aI7
aI0
aI0
aI0
aI0
aI6
aI16
aI10
aI0
aI0
aI0
aI0
aI0
aI0
aI5
aI16
aI11
aI0
aI0
aI0
aI0
aI0
aI0
aI6
aI16
aI3
aI0
aI0
aI0
aI0
aI0
aI10
aI16
aI5
aI0
aI0
aI2
aI14
aI16
aI12
aI9
aI0
aI0
aI3
aa.